(dp0
S'2350750'
p1
c__builtin__
set
p2
((lp3
S'71250'
p4
aS'10979500'
p5
aS'3552000'
p6
atp7
Rp8
sS'7269750'
p9
g2
((lp10
tp11
Rp12
sS'6572500'
p13
g2
((lp14
S'7687500'
p15
atp16
Rp17
sS'11751000'
p18
g2
((lp19
tp20
Rp21
sS'8555500'
p22
g2
((lp23
g5
aS'3010000'
p24
aS'747500'
p25
atp26
Rp27
sS'425500'
p28
g2
((lp29
S'8040000'
p30
aS'8845250'
p31
aS'10234000'
p32
aS'5780000'
p33
atp34
Rp35
sS'4853750'
p36
g2
((lp37
tp38
Rp39
sS'5980500'
p40
g2
((lp41
S'2920750'
p42
aS'5139250'
p43
aS'2788750'
p44
aS'2940000'
p45
aS'10592000'
p46
atp47
Rp48
sS'4256500'
p49
g2
((lp50
S'1165500'
p51
atp52
Rp53
sS'9039750'
p54
g2
((lp55
S'11535500'
p56
aS'29750'
p57
atp58
Rp59
sS'4115500'
p60
g2
((lp61
tp62
Rp63
sS'6264750'
p64
g2
((lp65
S'11225500'
p66
aS'3723750'
p67
aS'9436000'
p68
aS'4133750'
p69
aS'11558000'
p70
aS'5011500'
p71
aS'3014750'
p72
atp73
Rp74
sS'591750'
p75
g2
((lp76
S'11716000'
p77
ag57
atp78
Rp79
sS'3404000'
p80
g2
((lp81
tp82
Rp83
sS'7149500'
p84
g2
((lp85
tp86
Rp87
sS'7367000'
p88
g2
((lp89
g56
atp90
Rp91
sS'4956000'
p92
g2
((lp93
g77
ag56
aS'3001000'
p94
aS'1449250'
p95
aS'1206500'
p96
atp97
Rp98
sS'7927750'
p99
g2
((lp100
S'8508750'
p101
ag5
aS'3892750'
p102
atp103
Rp104
sS'9982500'
p105
g2
((lp106
tp107
Rp108
sS'4606000'
p109
g2
((lp110
g5
aS'10715500'
p111
atp112
Rp113
sS'145750'
p114
g2
((lp115
g56
atp116
Rp117
sS'10443000'
p118
g2
((lp119
S'11923000'
p120
ag95
aS'5911250'
p121
ag96
atp122
Rp123
sS'1710500'
p124
g2
((lp125
g121
aS'887500'
p126
aS'8172250'
p127
aS'1530250'
p128
ag120
ag95
aS'139000'
p129
atp130
Rp131
sS'9706000'
p132
g2
((lp133
g6
aS'364250'
p134
ag57
ag129
ag56
atp135
Rp136
sS'3913250'
p137
g2
((lp138
g111
ag5
ag57
aS'5082500'
p139
ag24
atp140
Rp141
sS'12008000'
p142
g2
((lp143
g95
atp144
Rp145
sS'9351750'
p146
g2
((lp147
g5
atp148
Rp149
sS'4195500'
p150
g2
((lp151
g77
aS'6458500'
p152
atp153
Rp154
sS'1194750'
p155
g2
((lp156
g95
ag129
ag152
atp157
Rp158
sS'5108000'
p159
g2
((lp160
S'12015250'
p161
ag126
ag77
aS'6977000'
p162
ag95
aS'4087750'
p163
ag96
atp164
Rp165
sS'1617250'
p166
g2
((lp167
g5
ag6
ag152
aS'418500'
p168
ag56
atp169
Rp170
sS'10018000'
p171
g2
((lp172
g5
ag57
ag56
atp173
Rp174
sS'8145500'
p175
g2
((lp176
g30
atp177
Rp178
sS'567250'
p179
g2
((lp180
S'7383000'
p181
ag5
atp182
Rp183
sS'12371000'
p184
g2
((lp185
g4
ag5
ag95
atp186
Rp187
sS'6867750'
p188
g2
((lp189
g66
ag5
atp190
Rp191
sS'1319000'
p192
g2
((lp193
g57
atp194
Rp195
sS'1832000'
p196
g2
((lp197
S'439000'
p198
atp199
Rp200
sS'3188000'
p201
g2
((lp202
g57
atp203
Rp204
sS'8430000'
p205
g2
((lp206
g5
ag129
atp207
Rp208
sg57
g2
((lp209
S'8096750'
p210
aS'11283500'
p211
aS'776750'
p212
aS'6571000'
p213
aS'5642000'
p214
aS'1459000'
p215
ag54
aS'11874000'
p216
ag75
aS'11022500'
p217
aS'5037000'
p218
ag132
aS'7703750'
p219
aS'6921750'
p220
aS'3266750'
p221
aS'7921500'
p222
aS'3344750'
p223
aS'11601500'
p224
aS'7218000'
p225
aS'9811750'
p226
aS'9651250'
p227
ag171
aS'8033500'
p228
aS'1906000'
p229
aS'3981750'
p230
aS'3350250'
p231
ag192
aS'9179500'
p232
aS'4184250'
p233
ag201
aS'1240250'
p234
aS'981000'
p235
aS'9906500'
p236
aS'10064500'
p237
aS'10915250'
p238
aS'3149000'
p239
aS'7375000'
p240
aS'11535250'
p241
aS'4844000'
p242
aS'9215000'
p243
aS'1985250'
p244
aS'3257000'
p245
aS'2033500'
p246
aS'8799750'
p247
aS'2198750'
p248
aS'452750'
p249
aS'4658500'
p250
aS'6014750'
p251
aS'9438000'
p252
aS'4004500'
p253
aS'7306250'
p254
ag139
aS'8195000'
p255
aS'1904750'
p256
aS'9512750'
p257
aS'11632250'
p258
aS'3215500'
p259
aS'5034000'
p260
aS'650750'
p261
aS'9079500'
p262
aS'1459750'
p263
aS'12154500'
p264
aS'6380000'
p265
aS'6849750'
p266
aS'1629250'
p267
aS'4680000'
p268
aS'8617500'
p269
aS'5769750'
p270
aS'1561250'
p271
aS'8243500'
p272
aS'847750'
p273
aS'11612500'
p274
aS'5693000'
p275
aS'11552750'
p276
ag46
aS'5539250'
p277
aS'4336750'
p278
aS'1381000'
p279
aS'11169500'
p280
aS'5024500'
p281
aS'5467250'
p282
aS'69500'
p283
aS'341000'
p284
aS'6654750'
p285
aS'4503500'
p286
aS'5957500'
p287
aS'5293250'
p288
aS'3684750'
p289
aS'10261750'
p290
aS'8324500'
p291
aS'12231250'
p292
aS'1441500'
p293
aS'3573750'
p294
aS'10598500'
p295
aS'6564500'
p296
aS'5899750'
p297
aS'8529750'
p298
aS'4454500'
p299
aS'4880250'
p300
aS'563500'
p301
aS'4770500'
p302
aS'2968250'
p303
ag137
aS'2975500'
p304
aS'5264500'
p305
aS'3952000'
p306
aS'3846250'
p307
aS'1688750'
p308
aS'7600250'
p309
aS'745750'
p310
aS'154500'
p311
aS'6694750'
p312
aS'9123500'
p313
aS'2988000'
p314
aS'4852000'
p315
aS'8149250'
p316
aS'1104500'
p317
aS'8910750'
p318
aS'299750'
p319
aS'1969000'
p320
ag71
aS'4809000'
p321
aS'3795000'
p322
aS'5226500'
p323
aS'4025000'
p324
aS'2874500'
p325
aS'1531250'
p326
aS'11794250'
p327
aS'5279750'
p328
aS'3310750'
p329
aS'10492250'
p330
aS'3288250'
p331
ag45
aS'10840750'
p332
aS'9069000'
p333
aS'6266000'
p334
aS'9103250'
p335
aS'4317250'
p336
aS'5052000'
p337
aS'11939000'
p338
aS'1074750'
p339
aS'8051750'
p340
ag72
atp341
Rp342
sS'980000'
p343
g2
((lp344
tp345
Rp346
sS'3249250'
p347
g2
((lp348
g94
ag4
ag6
ag95
ag129
ag56
ag96
atp349
Rp350
sS'6099250'
p351
g2
((lp352
S'7405250'
p353
aS'5068750'
p354
ag126
ag94
ag24
ag5
ag129
aS'82250'
p355
ag96
aS'9420500'
p356
atp357
Rp358
sS'10047250'
p359
g2
((lp360
tp361
Rp362
sS'2050000'
p363
g2
((lp364
g152
atp365
Rp366
sS'861250'
p367
g2
((lp368
S'8327250'
p369
ag5
ag356
atp370
Rp371
sS'10533750'
p372
g2
((lp373
g95
ag128
ag6
ag129
ag111
atp374
Rp375
sg238
g2
((lp376
g57
atp377
Rp378
sS'6458000'
p379
g2
((lp380
g267
aS'5865750'
p381
aS'1792000'
p382
ag317
ag30
aS'7892000'
p383
atp384
Rp385
sS'4557250'
p386
g2
((lp387
tp388
Rp389
sS'405000'
p390
g2
((lp391
g5
atp392
Rp393
sS'7116750'
p394
g2
((lp395
g5
ag56
atp396
Rp397
sS'1815750'
p398
g2
((lp399
tp400
Rp401
sS'3031750'
p402
g2
((lp403
g126
aS'9979000'
p404
aS'203750'
p405
aS'8215250'
p406
ag111
ag163
ag96
aS'7450000'
p407
aS'11141500'
p408
aS'11625250'
p409
ag161
ag285
ag94
aS'11078500'
p410
ag6
aS'8702500'
p411
aS'1247000'
p412
ag152
ag101
ag324
aS'6257000'
p413
ag56
ag129
aS'3245250'
p414
ag121
aS'11527500'
p415
ag5
ag95
ag356
aS'7002750'
p416
aS'6458250'
p417
aS'7323750'
p418
ag4
aS'4421250'
p419
ag120
aS'3295250'
p420
aS'5440500'
p421
atp422
Rp423
sS'5170500'
p424
g2
((lp425
g330
ag134
ag56
ag96
atp426
Rp427
sS'5354000'
p428
g2
((lp429
g121
ag5
ag95
ag129
ag111
ag56
atp430
Rp431
sS'5915250'
p432
g2
((lp433
tp434
Rp435
sS'7016500'
p436
g2
((lp437
g25
ag134
aS'6354500'
p438
ag111
ag56
aS'9278500'
p439
atp440
Rp441
sS'3335000'
p442
g2
((lp443
tp444
Rp445
sS'12215000'
p446
g2
((lp447
g407
aS'8523250'
p448
ag414
ag121
ag419
ag120
aS'10831750'
p449
aS'9055750'
p450
ag129
ag111
ag101
ag95
aS'4814750'
p451
ag163
ag152
atp452
Rp453
sS'9202750'
p454
g2
((lp455
tp456
Rp457
sS'10302500'
p458
g2
((lp459
g129
atp460
Rp461
sS'3114000'
p462
g2
((lp463
g111
atp464
Rp465
sg249
g2
((lp466
g57
aS'6768000'
p467
atp468
Rp469
sS'9716500'
p470
g2
((lp471
tp472
Rp473
sS'8869250'
p474
g2
((lp475
g330
atp476
Rp477
sS'6126750'
p478
g2
((lp479
g111
atp480
Rp481
sS'8909750'
p482
g2
((lp483
g4
ag5
ag102
ag356
ag111
atp484
Rp485
sS'1579250'
p486
g2
((lp487
g5
ag102
atp488
Rp489
sS'764750'
p490
g2
((lp491
g127
atp492
Rp493
sS'2910750'
p494
g2
((lp495
S'1971500'
p496
atp497
Rp498
sS'12417500'
p499
g2
((lp500
tp501
Rp502
sS'8156500'
p503
g2
((lp504
g77
ag5
atp505
Rp506
sg414
g2
((lp507
g46
aS'4215750'
p508
ag402
aS'6247250'
p509
ag284
aS'8163500'
p510
aS'2253250'
p511
aS'7699500'
p512
aS'10642000'
p513
ag219
ag312
ag235
aS'4475750'
p514
ag214
aS'8216500'
p515
aS'3317500'
p516
ag446
ag316
ag30
aS'9513250'
p517
aS'5155750'
p518
atp519
Rp520
sS'4423500'
p521
g2
((lp522
tp523
Rp524
sg511
g2
((lp525
g414
aS'5697750'
p526
ag95
ag129
ag56
ag421
atp527
Rp528
sS'6766250'
p529
g2
((lp530
g5
aS'10264750'
p531
ag126
atp532
Rp533
sg258
g2
((lp534
g57
ag405
ag24
ag5
ag101
ag111
atp535
Rp536
sg259
g2
((lp537
g56
ag57
atp538
Rp539
sS'200250'
p540
g2
((lp541
g95
ag129
ag152
atp542
Rp543
sS'3168000'
p544
g2
((lp545
tp546
Rp547
sS'11493000'
p548
g2
((lp549
tp550
Rp551
sg262
g2
((lp552
g57
atp553
Rp554
sS'8730250'
p555
g2
((lp556
g508
ag56
ag96
atp557
Rp558
sS'65500'
p559
g2
((lp560
g324
aS'11046750'
p561
ag96
atp562
Rp563
sS'6515500'
p564
g2
((lp565
g5
ag6
atp566
Rp567
sS'832250'
p568
g2
((lp569
g56
atp570
Rp571
sS'10054250'
p572
g2
((lp573
g5
ag95
ag129
ag25
atp574
Rp575
sg286
g2
((lp576
g57
atp577
Rp578
sS'11142000'
p579
g2
((lp580
g121
ag355
ag96
atp581
Rp582
sS'4376250'
p583
g2
((lp584
g24
ag5
ag95
ag356
ag111
ag96
atp585
Rp586
sg25
g2
((lp587
S'2807500'
p588
ag250
ag22
aS'2771250'
p589
ag436
ag572
ag330
ag318
atp590
Rp591
sS'10521000'
p592
g2
((lp593
S'7286500'
p594
aS'3272000'
p595
atp596
Rp597
sg271
g2
((lp598
g57
aS'10799000'
p599
ag95
ag129
ag406
ag324
ag56
atp600
Rp601
sS'5812000'
p602
g2
((lp603
g129
atp604
Rp605
sS'2182750'
p606
g2
((lp607
S'9488750'
p608
atp609
Rp610
sS'190500'
p611
g2
((lp612
tp613
Rp614
sS'3977750'
p615
g2
((lp616
g56
atp617
Rp618
sS'10401500'
p619
g2
((lp620
g161
atp621
Rp622
sS'1173500'
p623
g2
((lp624
S'2616250'
p625
ag24
ag129
ag152
atp626
Rp627
sS'2733500'
p628
g2
((lp629
tp630
Rp631
sS'3588500'
p632
g2
((lp633
g129
aS'2882750'
p634
ag152
ag126
ag94
ag128
aS'140500'
p635
ag24
ag5
ag408
ag450
ag356
ag111
ag421
ag526
ag96
atp636
Rp637
sS'282500'
p638
g2
((lp639
g5
atp640
Rp641
sS'5987000'
p642
g2
((lp643
tp644
Rp645
sg126
g2
((lp646
S'10944750'
p647
ag312
ag402
aS'8111500'
p648
ag46
aS'4059500'
p649
aS'2200750'
p650
aS'5143250'
p651
ag245
aS'9592500'
p652
ag124
ag218
aS'4625750'
p653
aS'1934750'
p654
aS'11129250'
p655
ag514
aS'4547500'
p656
aS'6061250'
p657
aS'5078750'
p658
aS'11984750'
p659
ag44
ag159
ag512
ag529
aS'9163000'
p660
ag5
aS'12377250'
p661
ag45
aS'5238000'
p662
aS'239250'
p663
ag264
aS'5407750'
p664
ag302
ag411
aS'8435250'
p665
aS'6874250'
p666
aS'1086750'
p667
aS'10773000'
p668
ag305
ag351
aS'10818500'
p669
aS'3742000'
p670
aS'2168250'
p671
aS'7103000'
p672
ag30
ag632
atp673
Rp674
sS'10322250'
p675
g2
((lp676
g129
atp677
Rp678
sS'7483500'
p679
g2
((lp680
g77
ag5
ag56
ag356
atp681
Rp682
sS'3148500'
p683
g2
((lp684
tp685
Rp686
sg280
g2
((lp687
g77
ag95
ag57
ag51
ag4
atp688
Rp689
sS'5287000'
p690
g2
((lp691
tp692
Rp693
sS'47000'
p694
g2
((lp695
tp696
Rp697
sS'4102750'
p698
g2
((lp699
tp700
Rp701
sS'848500'
p702
g2
((lp703
g56
ag95
atp704
Rp705
sS'3293750'
p706
g2
((lp707
tp708
Rp709
sg284
g2
((lp710
g414
ag95
ag57
ag129
ag56
atp711
Rp712
sg43
g2
((lp713
g94
ag40
ag95
ag129
ag355
ag152
atp714
Rp715
sg285
g2
((lp716
g402
ag121
ag6
ag235
ag95
ag129
ag57
atp717
Rp718
sg287
g2
((lp719
g312
ag57
ag6
ag514
ag152
ag111
atp720
Rp721
sg514
g2
((lp722
g126
ag287
ag405
ag111
aS'7435500'
p723
ag408
ag94
ag410
aS'3089500'
p724
ag6
ag152
aS'1641000'
p725
ag324
ag129
ag414
aS'9973000'
p726
ag369
ag5
ag95
ag4
ag120
ag450
aS'2704750'
p727
ag451
ag421
atp728
Rp729
sS'7190750'
p730
g2
((lp731
tp732
Rp733
sS'3524750'
p734
g2
((lp735
tp736
Rp737
sg292
g2
((lp738
g6
ag95
ag57
atp739
Rp740
sg293
g2
((lp741
g5
ag57
ag356
atp742
Rp743
sS'11949750'
p744
g2
((lp745
tp746
Rp747
sS'7320250'
p748
g2
((lp749
tp750
Rp751
sS'3009000'
p752
g2
((lp753
g162
ag95
ag129
atp754
Rp755
sS'2331750'
p756
g2
((lp757
g77
ag5
ag6
ag111
ag96
atp758
Rp759
sS'4907500'
p760
g2
((lp761
g4
ag5
ag134
ag56
atp762
Rp763
sS'12061000'
p764
g2
((lp765
g305
atp766
Rp767
sS'1627000'
p768
g2
((lp769
S'10816000'
p770
ag4
atp771
Rp772
sS'2251750'
p773
g2
((lp774
S'7211250'
p775
ag526
ag6
ag152
ag608
atp776
Rp777
sS'382250'
p778
g2
((lp779
g5
ag95
ag24
atp780
Rp781
sS'5952250'
p782
g2
((lp783
tp784
Rp785
sg663
g2
((lp786
g5
ag126
ag111
atp787
Rp788
sS'4804500'
p789
g2
((lp790
g33
atp791
Rp792
sS'9044750'
p793
g2
((lp794
S'1140750'
p795
ag255
ag305
atp796
Rp797
sS'4189500'
p798
g2
((lp799
tp800
Rp801
sS'5199750'
p802
g2
((lp803
g770
ag77
ag129
atp804
Rp805
sg306
g2
((lp806
g57
ag5
ag770
ag77
ag129
ag56
atp807
Rp808
sS'2756000'
p809
g2
((lp810
g129
atp811
Rp812
sg635
g2
((lp813
g44
ag632
atp814
Rp815
sS'11496750'
p816
g2
((lp817
g96
atp818
Rp819
sg4
g2
((lp820
g210
ag1
ag312
ag402
aS'10393750'
p821
aS'1492500'
p822
aS'5754500'
p823
aS'11936000'
p824
aS'10628500'
p825
ag280
ag44
ag651
aS'8353250'
p826
aS'10229250'
p827
aS'691500'
p828
aS'6751750'
p829
ag588
ag319
ag219
ag514
ag321
aS'6683750'
p830
ag768
ag222
ag254
ag381
ag760
aS'8573000'
p831
aS'2808500'
p832
ag330
ag482
ag184
aS'4921000'
p833
aS'4257000'
p834
aS'854250'
p835
ag664
ag508
aS'4193750'
p836
aS'11613500'
p837
ag305
ag347
ag270
ag214
ag235
aS'892500'
p838
aS'7143250'
p839
ag237
ag310
aS'2232500'
p840
aS'3963750'
p841
ag274
aS'6683250'
p842
atp843
Rp844
sg309
g2
((lp845
g6
ag57
ag659
ag121
ag129
atp846
Rp847
sS'6433000'
p848
g2
((lp849
g6
atp850
Rp851
sg727
g2
((lp852
g514
atp853
Rp854
sS'232000'
p855
g2
((lp856
g5
ag356
atp857
Rp858
sS'415500'
p859
g2
((lp860
g56
atp861
Rp862
sS'528250'
p863
g2
((lp864
g56
atp865
Rp866
sS'3226500'
p867
g2
((lp868
g5
ag152
ag111
atp869
Rp870
sg128
g2
((lp871
S'1724250'
p872
aS'4922750'
p873
aS'12239250'
p874
ag649
aS'12173500'
p875
ag510
ag124
ag823
aS'12065000'
p876
ag256
aS'7918750'
p877
ag372
ag310
aS'4097500'
p878
ag30
ag841
aS'2138750'
p879
ag632
atp880
Rp881
sS'1189000'
p882
g2
((lp883
g5
ag56
ag129
ag24
atp884
Rp885
sS'4378500'
p886
g2
((lp887
g30
ag152
atp888
Rp889
sg775
g2
((lp890
g828
ag212
ag382
ag773
ag508
aS'10653250'
p891
atp892
Rp893
sg823
g2
((lp894
g594
ag77
ag128
ag6
ag4
ag56
atp895
Rp896
sS'7810250'
p897
g2
((lp898
g152
atp899
Rp900
sS'7513250'
p901
g2
((lp902
g5
atp903
Rp904
sS'3520000'
p905
g2
((lp906
g77
ag6
ag129
ag152
ag421
atp907
Rp908
sg315
g2
((lp909
g95
ag57
ag129
atp910
Rp911
sS'5027500'
p912
g2
((lp913
g5
ag56
atp914
Rp915
sS'1517000'
p916
g2
((lp917
tp918
Rp919
sS'8622000'
p920
g2
((lp921
tp922
Rp923
sS'3396250'
p924
g2
((lp925
tp926
Rp927
sg826
g2
((lp928
g77
ag5
ag724
ag4
atp929
Rp930
sS'8123500'
p931
g2
((lp932
g95
atp933
Rp934
sS'573000'
p935
g2
((lp936
g95
ag129
ag355
atp937
Rp938
sg318
g2
((lp939
g6
ag96
ag57
ag152
ag25
atp940
Rp941
sg319
g2
((lp942
g4
ag625
ag95
ag57
atp943
Rp944
sg320
g2
((lp945
g57
ag355
atp946
Rp947
sg71
g2
((lp948
g57
ag531
ag354
ag139
ag268
ag77
aS'7860250'
p949
ag134
ag405
ag24
ag111
ag5
aS'7445000'
p950
ag356
aS'3096750'
p951
ag64
ag418
ag56
atp952
Rp953
sS'4035250'
p954
g2
((lp955
tp956
Rp957
sS'12275500'
p958
g2
((lp959
g5
atp960
Rp961
sg449
g2
((lp962
g446
atp963
Rp964
sS'3363000'
p965
g2
((lp966
g77
atp967
Rp968
sg325
g2
((lp969
g95
ag57
ag139
atp970
Rp971
sg326
g2
((lp972
g57
ag139
ag405
ag5
ag111
aS'10885750'
p973
ag96
atp974
Rp975
sS'4054000'
p976
g2
((lp977
tp978
Rp979
sS'2103250'
p980
g2
((lp981
g94
ag24
ag405
ag5
ag129
ag950
ag101
ag111
ag56
ag96
atp982
Rp983
sg840
g2
((lp984
g4
ag6
ag134
ag95
ag129
ag56
atp985
Rp986
sg328
g2
((lp987
g6
ag95
ag57
ag56
atp988
Rp989
sS'1812000'
p990
g2
((lp991
g56
atp992
Rp993
sS'5828250'
p994
g2
((lp995
S'4712250'
p996
atp997
Rp998
sS'6233750'
p999
g2
((lp1000
tp1001
Rp1002
sS'11761750'
p1003
g2
((lp1004
g77
atp1005
Rp1006
sS'4186500'
p1007
g2
((lp1008
g56
atp1009
Rp1010
sS'2797750'
p1011
g2
((lp1012
g330
ag973
atp1013
Rp1014
sg356
g2
((lp1015
g647
aS'8649250'
p1016
ag402
aS'1909250'
p1017
aS'11701500'
p1018
aS'5906250'
p1019
aS'5608250'
p1020
aS'9671750'
p1021
ag583
ag317
aS'5491500'
p1022
ag70
ag71
ag830
ag482
ag293
aS'6754250'
p1023
aS'5239500'
p1024
ag5
ag855
ag679
ag66
aS'4370750'
p1025
ag67
aS'9076750'
p1026
aS'12234750'
p1027
ag69
ag305
ag351
ag307
ag367
aS'5959000'
p1028
ag274
ag588
ag240
ag30
ag632
atp1029
Rp1030
sS'9794000'
p1031
g2
((lp1032
tp1033
Rp1034
sg334
g2
((lp1035
g57
atp1036
Rp1037
sS'5059000'
p1038
g2
((lp1039
tp1040
Rp1041
sg672
g2
((lp1042
g5
ag56
ag129
ag126
atp1043
Rp1044
sS'2626250'
p1045
g2
((lp1046
tp1047
Rp1048
sS'9685000'
p1049
g2
((lp1050
tp1051
Rp1052
sg66
g2
((lp1053
g24
aS'9946250'
p1054
ag5
ag356
ag188
ag111
aS'154750'
p1055
ag64
ag418
atp1056
Rp1057
sg1025
g2
((lp1058
g5
ag56
ag356
ag111
atp1059
Rp1060
sg448
g2
((lp1061
g446
ag508
ag161
ag419
atp1062
Rp1063
sS'3903500'
p1064
g2
((lp1065
g95
atp1066
Rp1067
sS'9244000'
p1068
g2
((lp1069
tp1070
Rp1071
sS'8102000'
p1072
g2
((lp1073
tp1074
Rp1075
sS'6150750'
p1076
g2
((lp1077
tp1078
Rp1079
sS'8633500'
p1080
g2
((lp1081
tp1082
Rp1083
sg256
g2
((lp1084
g128
ag57
atp1085
Rp1086
sS'6412750'
p1087
g2
((lp1088
g129
atp1089
Rp1090
sS'9463750'
p1091
g2
((lp1092
g56
ag95
ag152
atp1093
Rp1094
sg1026
g2
((lp1095
g5
ag356
atp1096
Rp1097
sS'11352000'
p1098
g2
((lp1099
g95
atp1100
Rp1101
sS'1782250'
p1102
g2
((lp1103
tp1104
Rp1105
sS'11782250'
p1106
g2
((lp1107
g235
atp1108
Rp1109
sS'4852500'
p1110
g2
((lp1111
g95
atp1112
Rp1113
sS'1074500'
p1114
g2
((lp1115
g95
ag129
ag96
atp1116
Rp1117
sS'5320000'
p1118
g2
((lp1119
g56
atp1120
Rp1121
sS'6272000'
p1122
g2
((lp1123
tp1124
Rp1125
sg216
g2
((lp1126
g770
ag56
ag57
ag24
ag111
atp1127
Rp1128
sg225
g2
((lp1129
g95
ag57
ag56
atp1130
Rp1131
sg217
g2
((lp1132
g301
ag57
atp1133
Rp1134
sS'11579750'
p1135
g2
((lp1136
g56
ag95
ag129
atp1137
Rp1138
sS'10790500'
p1139
g2
((lp1140
tp1141
Rp1142
sg595
g2
((lp1143
g592
atp1144
Rp1145
sg369
g2
((lp1146
g496
ag33
aS'393250'
p1147
aS'2752000'
p1148
aS'1661750'
p1149
ag514
ag367
ag839
aS'4895250'
p1150
ag30
aS'2480750'
p1151
atp1152
Rp1153
sg724
g2
((lp1154
g67
ag649
ag514
ag316
aS'11313000'
p1155
ag826
atp1156
Rp1157
sS'5248750'
p1158
g2
((lp1159
tp1160
Rp1161
sg1020
g2
((lp1162
g101
ag5
ag950
ag356
ag24
atp1163
Rp1164
sS'4399750'
p1165
g2
((lp1166
g111
ag312
aS'10513000'
p1167
ag129
atp1168
Rp1169
sg625
g2
((lp1170
g1023
aS'38250'
p1171
ag319
aS'11440500'
p1172
aS'8940500'
p1173
ag235
aS'599750'
p1174
ag623
ag30
atp1175
Rp1176
sg322
g2
((lp1177
g770
ag77
ag57
ag56
atp1178
Rp1179
sS'2768250'
p1180
g2
((lp1181
tp1182
Rp1183
sS'8701250'
p1184
g2
((lp1185
g129
atp1186
Rp1187
sg222
g2
((lp1188
g4
ag57
atp1189
Rp1190
sg223
g2
((lp1191
g6
aS'10933250'
p1192
ag57
aS'5061750'
p1193
atp1194
Rp1195
sg224
g2
((lp1196
g57
ag94
ag5
ag129
ag101
ag111
ag324
ag56
atp1197
Rp1198
sS'1699500'
p1199
g2
((lp1200
tp1201
Rp1202
sS'5948500'
p1203
g2
((lp1204
g101
ag5
ag312
atp1205
Rp1206
sS'11321750'
p1207
g2
((lp1208
g56
ag95
ag608
atp1209
Rp1210
sg33
g2
((lp1211
S'11220500'
p1212
ag77
ag28
ag419
ag369
ag95
ag416
ag420
ag789
aS'4304250'
p1213
ag56
ag96
atp1214
Rp1215
sg1018
g2
((lp1216
g77
ag5
ag134
ag356
ag56
atp1217
Rp1218
sS'6897000'
p1219
g2
((lp1220
g56
ag95
ag96
atp1221
Rp1222
sg230
g2
((lp1223
g57
aS'11737250'
p1224
ag56
ag152
ag111
ag526
atp1225
Rp1226
sS'9344000'
p1227
g2
((lp1228
tp1229
Rp1230
sg835
g2
((lp1231
g4
aS'4501000'
p1232
ag96
atp1233
Rp1234
sS'3326250'
p1235
g2
((lp1236
g5
ag111
atp1237
Rp1238
sg411
g2
((lp1239
g402
ag126
ag94
ag95
ag181
ag56
ag96
atp1240
Rp1241
sg608
g2
((lp1242
S'1525000'
p1243
ag1207
ag1022
ag773
ag243
aS'2852250'
p1244
ag606
ag1028
aS'1244250'
p1245
ag830
ag659
atp1246
Rp1247
sS'1324500'
p1248
g2
((lp1249
tp1250
Rp1251
sS'6140500'
p1252
g2
((lp1253
S'7163250'
p1254
atp1255
Rp1256
sg1213
g2
((lp1257
g95
ag129
ag510
ag33
atp1258
Rp1259
sg354
g2
((lp1260
g351
ag71
aS'3625250'
p1261
atp1262
Rp1263
sS'4994000'
p1264
g2
((lp1265
tp1266
Rp1267
sS'10566000'
p1268
g2
((lp1269
g152
atp1270
Rp1271
sS'6634500'
p1272
g2
((lp1273
tp1274
Rp1275
sS'5336750'
p1276
g2
((lp1277
g95
ag129
ag121
ag96
atp1278
Rp1279
sS'3282250'
p1280
g2
((lp1281
tp1282
Rp1283
sg235
g2
((lp1284
g102
ag414
ag406
ag285
aS'711500'
p1285
ag4
ag134
ag6
ag405
ag1106
ag625
ag120
ag95
ag168
ag5
ag111
ag57
ag56
ag96
atp1286
Rp1287
sg278
g2
((lp1288
g57
atp1289
Rp1290
sg237
g2
((lp1291
g4
ag57
atp1292
Rp1293
sg1245
g2
((lp1294
g95
ag129
ag608
atp1295
Rp1296
sS'2737250'
p1297
g2
((lp1298
g77
ag508
ag30
ag6
atp1299
Rp1300
sg417
g2
((lp1301
g44
ag841
ag402
atp1302
Rp1303
sS'6998500'
p1304
g2
((lp1305
g95
ag129
ag96
atp1306
Rp1307
sg241
g2
((lp1308
g57
ag129
ag94
atp1309
Rp1310
sS'6172000'
p1311
g2
((lp1312
tp1313
Rp1314
sg1243
g2
((lp1315
g508
ag56
ag608
atp1316
Rp1317
sg242
g2
((lp1318
g95
ag57
ag24
ag5
atp1319
Rp1320
sg822
g2
((lp1321
g161
ag121
ag4
ag6
ag95
ag129
ag355
ag56
atp1322
Rp1323
sS'3035250'
p1324
g2
((lp1325
g317
ag56
atp1326
Rp1327
sS'731750'
p1328
g2
((lp1329
g56
ag129
atp1330
Rp1331
sS'7545250'
p1332
g2
((lp1333
g95
ag134
ag56
atp1334
Rp1335
sS'5082750'
p1336
g2
((lp1337
tp1338
Rp1339
sg825
g2
((lp1340
S'2148250'
p1341
ag4
ag6
ag405
ag5
ag152
ag950
ag111
ag526
atp1342
Rp1343
sg1341
g2
((lp1344
g825
atp1345
Rp1346
sS'11391250'
p1347
g2
((lp1348
tp1349
Rp1350
sS'2088000'
p1351
g2
((lp1352
g24
ag5
ag95
ag101
ag111
ag56
atp1353
Rp1354
sg15
g2
((lp1355
g102
ag6
ag13
atp1356
Rp1357
sg281
g2
((lp1358
g770
ag6
ag57
ag56
ag96
atp1359
Rp1360
sg260
g2
((lp1361
g57
ag94
ag95
ag129
ag421
ag96
atp1362
Rp1363
sS'4073250'
p1364
g2
((lp1365
tp1366
Rp1367
sg650
g2
((lp1368
g126
ag5
ag77
ag24
ag405
ag599
ag56
atp1369
Rp1370
sS'7854500'
p1371
g2
((lp1372
g408
ag94
ag5
ag531
ag95
ag129
ag56
atp1373
Rp1374
sg163
g2
((lp1375
g312
ag402
ag159
ag6
ag95
ag42
ag446
ag30
atp1376
Rp1377
sS'317500'
p1378
g2
((lp1379
g96
atp1380
Rp1381
sS'1446250'
p1382
g2
((lp1383
g5
ag56
ag139
ag405
atp1384
Rp1385
sS'9782000'
p1386
g2
((lp1387
tp1388
Rp1389
sg1022
g2
((lp1390
g5
ag95
ag356
ag420
ag111
ag608
atp1391
Rp1392
sg251
g2
((lp1393
g57
ag129
atp1394
Rp1395
sS'4782250'
p1396
g2
((lp1397
g129
atp1398
Rp1399
sS'4850000'
p1400
g2
((lp1401
g5
ag6
ag56
atp1402
Rp1403
sS'4153000'
p1404
g2
((lp1405
g77
ag6
atp1406
Rp1407
sS'11339250'
p1408
g2
((lp1409
g651
atp1410
Rp1411
sS'620500'
p1412
g2
((lp1413
g95
ag96
atp1414
Rp1415
sg254
g2
((lp1416
g4
ag5
ag57
ag129
ag111
atp1417
Rp1418
sS'11137750'
p1419
g2
((lp1420
tp1421
Rp1422
sS'4037500'
p1423
g2
((lp1424
g5
atp1425
Rp1426
sS'3895750'
p1427
g2
((lp1428
tp1429
Rp1430
sg139
g2
((lp1431
g1382
ag312
ag325
ag57
ag274
ag317
ag302
ag508
ag219
ag71
ag46
ag1173
ag5
ag214
ag661
ag137
ag330
ag340
ag30
ag326
ag266
atp1432
Rp1433
sg467
g2
((lp1434
S'6957500'
p1435
ag44
ag249
ag218
aS'6807250'
p1436
ag214
ag310
ag508
ag841
atp1437
Rp1438
sg283
g2
((lp1439
g57
ag94
ag77
ag129
ag421
ag56
ag96
atp1440
Rp1441
sg832
g2
((lp1442
g4
ag5
ag661
ag56
atp1443
Rp1444
sg134
g2
((lp1445
g210
ag424
ag1332
ag436
aS'1063000'
p1446
aS'9437500'
p1447
ag44
ag316
aS'5655250'
p1448
ag132
ag246
ag70
ag71
ag56
ag760
ag296
aS'10224750'
p1449
ag512
ag327
ag1018
aS'10976250'
p1450
ag267
aS'11590500'
p1451
ag305
ag235
aS'42000'
p1452
ag340
ag1155
ag840
atp1453
Rp1454
sS'10000250'
p1455
g2
((lp1456
tp1457
Rp1458
sg31
g2
((lp1459
g121
ag77
ag28
ag725
ag111
ag56
ag96
atp1460
Rp1461
sg1244
g2
((lp1462
g95
ag608
atp1463
Rp1464
sg261
g2
((lp1465
g298
ag312
ag1155
ag57
atp1466
Rp1467
sg1450
g2
((lp1468
g770
ag56
ag134
atp1469
Rp1470
sS'6700250'
p1471
g2
((lp1472
tp1473
Rp1474
sg265
g2
((lp1475
g57
ag244
atp1476
Rp1477
sS'12386500'
p1478
g2
((lp1479
tp1480
Rp1481
sS'3549000'
p1482
g2
((lp1483
g95
ag152
atp1484
Rp1485
sg668
g2
((lp1486
g5
ag56
ag121
ag126
ag24
atp1487
Rp1488
sS'11131750'
p1489
g2
((lp1490
g56
atp1491
Rp1492
sS'12028500'
p1493
g2
((lp1494
g56
ag129
atp1495
Rp1496
sS'11847750'
p1497
g2
((lp1498
tp1499
Rp1500
sS'805750'
p1501
g2
((lp1502
g162
atp1503
Rp1504
sS'6334000'
p1505
g2
((lp1506
g129
atp1507
Rp1508
sS'5254500'
p1509
g2
((lp1510
g56
ag95
ag129
atp1511
Rp1512
sS'1838000'
p1513
g2
((lp1514
tp1515
Rp1516
sS'1806750'
p1517
g2
((lp1518
tp1519
Rp1520
sS'9807250'
p1521
g2
((lp1522
g96
atp1523
Rp1524
sg839
g2
((lp1525
g4
ag369
atp1526
Rp1527
sg795
g2
((lp1528
g793
ag408
ag95
ag102
atp1529
Rp1530
sg878
g2
((lp1531
g770
ag128
atp1532
Rp1533
sg273
g2
((lp1534
g111
ag57
atp1535
Rp1536
sg841
g2
((lp1537
g408
ag467
ag4
ag128
ag6
ag405
ag95
ag111
ag417
atp1538
Rp1539
sg842
g2
((lp1540
g4
ag129
atp1541
Rp1542
sg275
g2
((lp1543
g5
ag57
ag56
atp1544
Rp1545
sS'11114000'
p1546
g2
((lp1547
g5
atp1548
Rp1549
sS'6358500'
p1550
g2
((lp1551
g1155
atp1552
Rp1553
sS'11730000'
p1554
g2
((lp1555
g152
atp1556
Rp1557
sg6
g2
((lp1558
g838
ag1
ag496
ag509
ag402
ag276
aS'9694750'
p1559
ag822
ag1254
aS'4047000'
p1560
ag823
aS'4967250'
p1561
ag46
ag905
ag825
ag15
aS'11957000'
p1562
ag281
ag163
ag891
aS'10592750'
p1563
ag318
ag662
ag212
ag285
aS'12388250'
p1564
ag132
aS'9288000'
p1565
ag1400
ag514
ag1404
aS'7715000'
p1566
ag1028
aS'10309250'
p1567
ag287
ag42
ag292
ag508
ag223
ag295
ag327
aS'7184500'
p1568
aS'5735000'
p1569
ag328
ag296
ag1449
ag166
ag1297
ag773
aS'417250'
p1570
ag756
aS'2921750'
p1571
aS'4631250'
p1572
ag1151
aS'5522250'
p1573
ag332
ag233
ag32
ag219
ag267
ag1150
ag305
ag347
ag288
ag1021
ag235
ag879
ag382
ag309
aS'7893250'
p1574
ag372
ag848
ag310
ag564
ag451
ag30
ag841
ag840
atp1575
Rp1576
sg1017
g2
((lp1577
g353
ag24
ag5
ag129
ag111
aS'6250250'
p1578
ag356
atp1579
Rp1580
sS'5910250'
p1581
g2
((lp1582
g5
ag56
atp1583
Rp1584
sg46
g2
((lp1585
g126
ag405
aS'4392000'
p1586
ag40
ag215
ag96
ag94
ag6
ag24
ag129
ag355
ag56
ag414
ag139
ag121
ag770
aS'12027000'
p1587
ag5
ag95
aS'5745000'
p1588
aS'11494250'
p1589
ag57
ag120
atp1590
Rp1591
sS'3054250'
p1592
g2
((lp1593
g95
atp1594
Rp1595
sg279
g2
((lp1596
g599
ag95
ag57
atp1597
Rp1598
sS'6400000'
p1599
g2
((lp1600
g77
atp1601
Rp1602
sS'3719250'
p1603
g2
((lp1604
g5
ag129
atp1605
Rp1606
sS'10972250'
p1607
g2
((lp1608
tp1609
Rp1610
sg496
g2
((lp1611
g369
ag494
ag6
ag152
ag1212
atp1612
Rp1613
sS'4259500'
p1614
g2
((lp1615
g77
ag96
atp1616
Rp1617
sg891
g2
((lp1618
g775
ag6
ag152
ag56
atp1619
Rp1620
sg723
g2
((lp1621
g95
ag514
atp1622
Rp1623
sS'6603750'
p1624
g2
((lp1625
tp1626
Rp1627
sg828
g2
((lp1628
g594
ag121
ag77
ag775
ag4
ag120
ag152
ag56
ag181
ag111
ag526
ag421
atp1629
Rp1630
sg1171
g2
((lp1631
g625
ag102
atp1632
Rp1633
sg589
g2
((lp1634
g408
ag25
atp1635
Rp1636
sg1565
g2
((lp1637
g6
atp1638
Rp1639
sg412
g2
((lp1640
g95
ag508
ag402
atp1641
Rp1642
sg289
g2
((lp1643
g5
ag57
atp1644
Rp1645
sg516
g2
((lp1646
g95
ag414
ag129
ag96
atp1647
Rp1648
sS'7898750'
p1649
g2
((lp1650
tp1651
Rp1652
sS'2870250'
p1653
g2
((lp1654
g56
atp1655
Rp1656
sS'8997500'
p1657
g2
((lp1658
tp1659
Rp1660
sg418
g2
((lp1661
g66
ag67
ag531
ag402
ag69
ag70
ag219
ag71
aS'10713250'
p1662
ag830
aS'9394250'
p1663
ag30
ag56
ag274
atp1664
Rp1665
sg294
g2
((lp1666
g57
atp1667
Rp1668
sS'9972250'
p1669
g2
((lp1670
g101
ag5
ag111
atp1671
Rp1672
sS'7361250'
p1673
g2
((lp1674
g526
atp1675
Rp1676
sS'5968250'
p1677
g2
((lp1678
g56
atp1679
Rp1680
sS'380000'
p1681
g2
((lp1682
tp1683
Rp1684
sS'5898500'
p1685
g2
((lp1686
tp1687
Rp1688
sS'6996000'
p1689
g2
((lp1690
tp1691
Rp1692
sS'1793250'
p1693
g2
((lp1694
g129
atp1695
Rp1696
sg301
g2
((lp1697
g438
ag95
ag217
ag57
ag96
atp1698
Rp1699
sS'434750'
p1700
g2
((lp1701
g77
atp1702
Rp1703
sS'5847500'
p1704
g2
((lp1705
g96
atp1706
Rp1707
sS'861750'
p1708
g2
((lp1709
tp1710
Rp1711
sg1573
g2
((lp1712
g77
ag94
ag6
ag129
ag96
atp1713
Rp1714
sS'8060000'
p1715
g2
((lp1716
tp1717
Rp1718
sg1588
g2
((lp1719
g1285
ag45
ag46
atp1720
Rp1721
sS'5654000'
p1722
g2
((lp1723
g162
ag111
ag94
ag355
ag96
atp1724
Rp1725
sS'3592750'
p1726
g2
((lp1727
g96
atp1728
Rp1729
sS'8792750'
p1730
g2
((lp1731
g5
ag24
atp1732
Rp1733
sg1150
g2
((lp1734
g408
ag6
ag51
ag369
ag5
ag324
ag96
atp1735
Rp1736
sg1451
g2
((lp1737
g56
ag134
atp1738
Rp1739
sS'3405000'
p1740
g2
((lp1741
g56
atp1742
Rp1743
sS'2378500'
p1744
g2
((lp1745
g101
ag5
ag56
atp1746
Rp1747
sg307
g2
((lp1748
g5
ag57
ag356
ag56
atp1749
Rp1750
sg996
g2
((lp1751
g994
atp1752
Rp1753
sg382
g2
((lp1754
g379
ag775
ag6
ag96
atp1755
Rp1756
sS'10112000'
p1757
g2
((lp1758
tp1759
Rp1760
sg421
g2
((lp1761
g283
ag662
ag402
ag511
aS'799000'
p1762
ag260
ag514
ag905
ag44
ag828
ag632
atp1763
Rp1764
sg1561
g2
((lp1765
g6
ag296
ag129
atp1766
Rp1767
sg561
g2
((lp1768
S'1838750'
p1769
ag559
atp1770
Rp1771
sg1193
g2
((lp1772
g330
aS'11362000'
p1773
ag517
ag223
aS'1622500'
p1774
atp1775
Rp1776
sg1147
g2
((lp1777
g162
ag369
ag129
atp1778
Rp1779
sS'11434750'
p1780
g2
((lp1781
tp1782
Rp1783
sg1019
g2
((lp1784
g5
ag95
ag356
atp1785
Rp1786
sS'10212500'
p1787
g2
((lp1788
tp1789
Rp1790
sS'10845500'
p1791
g2
((lp1792
tp1793
Rp1794
sS'3216500'
p1795
g2
((lp1796
g95
ag96
atp1797
Rp1798
sS'1855750'
p1799
g2
((lp1800
g95
atp1801
Rp1802
sg96
g2
((lp1803
g838
ag210
ag404
ag1114
ag214
ag92
ag583
ag218
ag219
ag659
ag508
ag1726
ag1568
ag159
ag33
ag1219
ag835
ag653
ag411
ag347
ag351
ag235
ag247
ag1304
ag1276
ag402
aS'2557000'
p1804
ag424
ag1378
ag655
ag831
ag1412
ag1173
ag31
ag260
ag555
ag559
ag834
ag264
ag665
ag579
ag118
aS'6571750'
p1805
ag669
ag1521
ag515
ag30
ag632
aS'2492500'
p1806
ag509
aS'10312750'
p1807
ag46
ag1572
ag281
aS'4902250'
p1808
ag1448
ag283
aS'11747250'
p1809
ag670
ag656
ag516
ag756
ag44
ag296
aS'3644250'
p1810
ag298
ag1149
ag301
ag1704
ag1573
ag1722
aS'9121750'
p1811
ag304
ag1150
ag305
ag1436
ag816
ag1566
aS'10069500'
p1812
aS'11158000'
p1813
ag312
ag649
aS'10095000'
p1814
ag1774
ag1795
ag316
ag510
ag317
ag318
ag246
aS'5187750'
p1815
aS'2688750'
p1816
ag323
ag326
ag980
ag330
aS'9586500'
p1817
ag331
ag333
aS'6234000'
p1818
aS'11896000'
p1819
ag1435
ag1614
ag382
ag288
aS'9173750'
p1820
ag339
ag1571
atp1821
Rp1822
sS'1966250'
p1823
g2
((lp1824
g56
ag95
atp1825
Rp1826
sS'5846250'
p1827
g2
((lp1828
tp1829
Rp1830
sS'267250'
p1831
g2
((lp1832
g5
ag56
ag129
atp1833
Rp1834
sg317
g2
((lp1835
g57
ag139
ag77
ag1324
ag405
ag5
ag101
ag95
ag356
ag379
ag111
ag56
ag96
atp1836
Rp1837
sg221
g2
((lp1838
g77
ag95
ag57
ag129
ag5
atp1839
Rp1840
sg1815
g2
((lp1841
g96
atp1842
Rp1843
sg1446
g2
((lp1844
g56
ag134
atp1845
Rp1846
sS'4876750'
p1847
g2
((lp1848
g129
atp1849
Rp1850
sg321
g2
((lp1851
g4
ag57
atp1852
Rp1853
sS'5121750'
p1854
g2
((lp1855
g210
ag1809
ag513
ag1028
ag129
ag30
atp1856
Rp1857
sg1762
g2
((lp1858
g1285
ag152
ag421
atp1859
Rp1860
sg42
g2
((lp1861
g6
ag40
ag95
ag129
ag163
ag56
atp1862
Rp1863
sg323
g2
((lp1864
g57
ag94
ag129
ag101
ag111
ag96
atp1865
Rp1866
sS'3751500'
p1867
g2
((lp1868
tp1869
Rp1870
sS'621500'
p1871
g2
((lp1872
g5
ag24
atp1873
Rp1874
sg353
g2
((lp1875
g250
ag351
ag1017
ag5
atp1876
Rp1877
sg68
g2
((lp1878
g64
atp1879
Rp1880
sS'7568250'
p1881
g2
((lp1882
tp1883
Rp1884
sg658
g2
((lp1885
g5
ag95
ag129
ag126
atp1886
Rp1887
sg1817
g2
((lp1888
g973
ag95
ag96
atp1889
Rp1890
sS'10768750'
p1891
g2
((lp1892
tp1893
Rp1894
sS'1148000'
p1895
g2
((lp1896
tp1897
Rp1898
sg1149
g2
((lp1899
g121
ag94
ag77
ag1586
ag369
ag120
ag95
ag129
ag420
ag96
atp1900
Rp1901
sg248
g2
((lp1902
g111
ag57
atp1903
Rp1904
sg168
g2
((lp1905
g166
ag671
ag235
atp1906
Rp1907
sg1818
g2
((lp1908
g96
atp1909
Rp1910
sS'835000'
p1911
g2
((lp1912
tp1913
Rp1914
sg1192
g2
((lp1915
g223
ag1448
atp1916
Rp1917
sg1819
g2
((lp1918
g96
atp1919
Rp1920
sg1055
g2
((lp1921
g66
ag56
ag69
atp1922
Rp1923
sg67
g2
((lp1924
g724
ag24
ag5
ag356
ag111
ag101
ag64
ag418
atp1925
Rp1926
sg836
g2
((lp1927
g4
ag56
atp1928
Rp1929
sS'3211250'
p1930
g2
((lp1931
g95
atp1932
Rp1933
sS'5438000'
p1934
g2
((lp1935
tp1936
Rp1937
sg339
g2
((lp1938
g57
ag94
ag297
ag419
ag129
ag56
ag96
atp1939
Rp1940
sg1571
g2
((lp1941
g1589
ag6
ag129
ag96
ag56
ag152
atp1942
Rp1943
sg450
g2
((lp1944
g312
ag513
ag514
ag446
ag111
ag632
atp1945
Rp1946
sS'7568750'
p1947
g2
((lp1948
g420
atp1949
Rp1950
sS'3661500'
p1951
g2
((lp1952
g1027
ag651
atp1953
Rp1954
sg72
g2
((lp1955
g531
ag57
ag5
ag111
ag101
ag64
ag56
atp1956
Rp1957
sg647
g2
((lp1958
g126
ag77
ag5
ag356
ag101
ag129
atp1959
Rp1960
sg838
g2
((lp1961
g4
ag324
ag6
ag152
ag96
atp1962
Rp1963
sg276
g2
((lp1964
g6
ag57
ag152
atp1965
Rp1966
sS'3849750'
p1967
g2
((lp1968
tp1969
Rp1970
sS'1911500'
p1971
g2
((lp1972
g56
ag95
ag152
ag419
atp1973
Rp1974
sS'8100250'
p1975
g2
((lp1976
g121
atp1977
Rp1978
sS'10546500'
p1979
g2
((lp1980
S'8070000'
p1981
aS'12015000'
p1982
atp1983
Rp1984
sg127
g2
((lp1985
g1811
ag210
ag312
ag236
ag124
ag659
ag669
ag214
ag333
ag101
ag490
atp1986
Rp1987
sg333
g2
((lp1988
g57
ag94
ag127
ag120
ag95
ag129
ag101
ag324
ag56
ag96
atp1989
Rp1990
sg51
g2
((lp1991
g312
ag1150
ag243
ag214
ag49
ag280
atp1992
Rp1993
sg336
g2
((lp1994
g111
ag57
atp1995
Rp1996
sS'11340250'
p1997
g2
((lp1998
tp1999
Rp2000
sg1021
g2
((lp2001
g6
ag5
ag356
ag101
ag111
ag30
atp2002
Rp2003
sS'11397250'
p2004
g2
((lp2005
tp2006
Rp2007
sg1810
g2
((lp2008
g324
ag95
ag152
ag96
atp2009
Rp2010
sS'11564250'
p2011
g2
((lp2012
g95
atp2013
Rp2014
sg661
g2
((lp2015
g181
ag102
ag139
ag126
ag5
ag832
ag405
ag77
ag95
ag152
ag950
ag101
ag111
ag56
ag129
atp2016
Rp2017
sS'1046250'
p2018
g2
((lp2019
g129
atp2020
Rp2021
sS'5220750'
p2022
g2
((lp2023
tp2024
Rp2025
sS'7034000'
p2026
g2
((lp2027
g5
ag526
ag420
atp2028
Rp2029
sg218
g2
((lp2030
g57
ag126
ag467
ag94
ag297
ag95
ag129
ag406
ag96
ag56
ag152
atp2031
Rp2032
sg302
g2
((lp2033
g57
ag139
ag126
ag77
ag405
ag5
ag56
atp2034
Rp2035
sS'2386250'
p2036
g2
((lp2037
tp2038
Rp2039
sg121
g2
((lp2040
g312
ag402
ag1975
ag822
ag1807
ag428
ag46
ag446
ag285
ag124
ag659
ag309
ag508
ag31
ag1149
ag828
ag579
ag668
ag118
ag305
ag1436
ag1276
ag1028
ag30
atp2041
Rp2042
sg1569
g2
((lp2043
g6
atp2044
Rp2045
sS'6497000'
p2046
g2
((lp2047
g770
atp2048
Rp2049
sg830
g2
((lp2050
g4
ag5
ag95
ag356
ag101
ag111
ag418
ag608
atp2051
Rp2052
sg404
g2
((lp2053
g77
ag5
ag402
ag129
ag96
atp2054
Rp2055
sS'11167500'
p2056
g2
((lp2057
g669
atp2058
Rp2059
sg879
g2
((lp2060
g128
ag6
atp2061
Rp2062
sS'2448250'
p2063
g2
((lp2064
g56
atp2065
Rp2066
sg1811
g2
((lp2067
g127
ag96
atp2068
Rp2069
sg381
g2
((lp2070
g379
ag4
ag56
atp2071
Rp2072
sg226
g2
((lp2073
g57
atp2074
Rp2075
sS'1499750'
p2076
g2
((lp2077
tp2078
Rp2079
sg1587
g2
((lp2080
g46
atp2081
Rp2082
sg949
g2
((lp2083
g71
atp2084
Rp2085
sS'10297000'
p2086
g2
((lp2087
tp2088
Rp2089
sS'8230750'
p2090
g2
((lp2091
g312
atp2092
Rp2093
sg1570
g2
((lp2094
g6
atp2095
Rp2096
sS'1110750'
p2097
g2
((lp2098
tp2099
Rp2100
sg1452
g2
((lp2101
g134
ag129
atp2102
Rp2103
sg1261
g2
((lp2104
g354
atp2105
Rp2106
sS'4809750'
p2107
g2
((lp2108
g129
atp2109
Rp2110
sS'10185750'
p2111
g2
((lp2112
tp2113
Rp2114
sg232
g2
((lp2115
g56
ag57
atp2116
Rp2117
sg233
g2
((lp2118
g57
ag161
ag77
ag6
ag95
ag56
atp2119
Rp2120
sg234
g2
((lp2121
g95
ag57
ag129
atp2122
Rp2123
sg305
g2
((lp2124
g126
ag6
ag405
ag406
ag96
ag407
ag408
ag599
ag764
ag129
ag101
ag56
ag121
ag297
ag134
ag5
ag95
ag356
ag793
ag57
ag4
ag120
ag181
ag526
aS'10185000'
p2125
atp2126
Rp2127
sg1167
g2
((lp2128
g1165
atp2129
Rp2130
sS'11616250'
p2131
g2
((lp2132
tp2133
Rp2134
sS'4063000'
p2135
g2
((lp2136
g56
atp2137
Rp2138
sS'8049000'
p2139
g2
((lp2140
tp2141
Rp2142
sS'1181250'
p2143
g2
((lp2144
tp2145
Rp2146
sg240
g2
((lp2147
g57
ag405
ag5
ag356
ag950
ag111
atp2148
Rp2149
sS'8170750'
p2150
g2
((lp2151
tp2152
Rp2153
sS'8666500'
p2154
g2
((lp2155
g129
atp2156
Rp2157
sS'12384250'
p2158
g2
((lp2159
tp2160
Rp2161
sS'725000'
p2162
g2
((lp2163
g5
ag111
atp2164
Rp2165
sg531
g2
((lp2166
g69
ag529
ag654
ag70
ag219
ag71
aS'3511000'
p2167
ag340
ag418
ag30
ag1371
ag72
ag274
atp2168
Rp2169
sS'9628250'
p2170
g2
((lp2171
tp2172
Rp2173
sg77
g2
((lp2174
g647
ag312
ag513
aS'5751500'
p2175
ag404
ag823
ag1018
ag243
ag659
ag905
ag280
ag296
ag1809
aS'6523250'
p2176
ag650
aS'11947000'
p2177
aS'8528750'
p2178
ag826
ag283
ag75
ag1614
ag317
ag679
ag221
ag415
ag71
ag1404
ag253
ag322
ag965
ag92
ag503
ag657
ag756
ag44
ag159
ag33
ag512
ag951
ag31
ag1003
ag1149
ag661
ag1700
ag1573
ag264
ag664
ag302
ag233
ag828
ag150
ag1562
ag508
ag2167
ag802
ag306
ag270
aS'3781500'
p2179
aS'236000'
p2180
ag1820
ag1297
aS'10966250'
p2181
ag1599
atp2182
Rp2183
sS'266500'
p2184
g2
((lp2185
tp2186
Rp2187
sS'10756500'
p2188
g2
((lp2189
tp2190
Rp2191
sg162
g2
((lp2192
g159
ag255
ag1501
ag1147
ag669
ag515
ag1722
ag752
atp2193
Rp2194
sS'10063000'
p2195
g2
((lp2196
g129
atp2197
Rp2198
sg244
g2
((lp2199
g265
ag57
ag439
ag56
ag5
atp2200
Rp2201
sS'309750'
p2202
g2
((lp2203
tp2204
Rp2205
sg634
g2
((lp2206
g509
ag129
ag632
atp2207
Rp2208
sS'8129250'
p2209
g2
((lp2210
g56
atp2211
Rp2212
sg383
g2
((lp2213
S'2006000'
p2214
ag770
ag24
ag5
ag95
ag152
ag379
ag56
atp2215
Rp2216
sg652
g2
((lp2217
g94
ag129
ag126
ag152
atp2218
Rp2219
sg255
g2
((lp2220
g793
ag57
ag162
ag95
ag129
ag438
atp2221
Rp2222
sS'6619500'
p2223
g2
((lp2224
tp2225
Rp2226
sS'3581250'
p2227
g2
((lp2228
g5
ag950
atp2229
Rp2230
sg1224
g2
((lp2231
S'764000'
p2232
ag1773
ag230
atp2233
Rp2234
sg250
g2
((lp2235
g211
ag353
ag57
ag25
ag405
ag5
ag95
ag129
ag950
ag111
ag56
atp2236
Rp2237
sS'7322250'
p2238
g2
((lp2239
g56
atp2240
Rp2241
sg655
g2
((lp2242
g419
ag95
ag126
ag96
atp2243
Rp2244
sg243
g2
((lp2245
g57
ag77
ag51
ag405
ag5
ag950
ag111
ag56
ag608
atp2246
Rp2247
sg651
g2
((lp2248
g408
ag126
ag4
ag5
ag1408
ag111
ag1951
atp2249
Rp2250
sg252
g2
((lp2251
g56
ag57
atp2252
Rp2253
sS'5726500'
p2254
g2
((lp2255
g5
ag355
atp2256
Rp2257
sS'7060500'
p2258
g2
((lp2259
tp2260
Rp2261
sg129
g2
((lp2262
g647
ag210
ag212
ag404
ag213
ag205
ag214
ag446
ag2177
ag661
ag1135
ag124
ag218
ag132
ag219
ag659
ag1184
ag2195
ag224
aS'5994250'
p2263
ag155
ag234
ag1574
ag260
ag2107
ag653
ag1114
ag347
ag1276
ag305
ag247
aS'9782500'
p2264
aS'2316250'
p2265
ag1245
ag372
ag1304
ag241
ag351
aS'1528500'
p2266
ag402
ag822
ag428
ag1328
ag1559
ag271
ag634
ag1371
ag458
ag245
ag652
ag255
ag250
ag513
ag251
ag1396
ag1028
ag1567
ag831
ag330
ag254
ag511
ag283
ag512
ag257
ag540
ag572
ag451
ag264
ag665
ag2018
ag267
ag1493
aS'5901250'
p2267
ag2154
ag1505
ag1509
ag672
ag935
ag632
ag842
aS'8745250'
p2268
ag509
ag675
ag1017
ag312
ag46
ag1603
aS'1118250'
p2269
aS'1365000'
p2270
ag282
ag407
ag1809
ag284
ag875
ag285
ag1831
ag514
ag516
ag656
ag518
ag752
ag295
ag44
ag296
ag298
ag1149
ag660
ag1693
ag1571
ag1573
aS'2078000'
p2271
ag43
aS'11734000'
p2272
ag802
ag306
ag1436
ag809
ag1452
ag309
ag1566
ag602
ag840
ag1165
ag1561
ag882
aS'64000'
p2273
ag1147
ag1774
ag905
ag315
ag316
ag510
ag94
ag221
ag227
ag1847
ag1854
ag657
ag1816
ag42
ag323
ag1213
aS'3304500'
p2274
ag980
ag658
ag45
ag333
aS'7476250'
p2275
ag623
ag667
aS'5261000'
p2276
ag288
aS'984500'
p2277
ag2179
ag198
aS'3861500'
p2278
ag339
ag1087
ag1172
atp2279
Rp2280
sS'4447000'
p2281
g2
((lp2282
tp2283
Rp2284
sS'1025250'
p2285
g2
((lp2286
tp2287
Rp2288
sS'8822250'
p2289
g2
((lp2290
tp2291
Rp2292
sS'1727500'
p2293
g2
((lp2294
g770
atp2295
Rp2296
sS'12229000'
p2297
g2
((lp2298
tp2299
Rp2300
sg247
g2
((lp2301
g57
ag94
ag95
ag129
ag324
ag56
ag96
atp2302
Rp2303
sg257
g2
((lp2304
g95
ag57
ag129
ag161
atp2305
Rp2306
sS'9212500'
p2307
g2
((lp2308
g5
atp2309
Rp2310
sg1024
g2
((lp2311
g5
ag1285
ag356
atp2312
Rp2313
sg263
g2
((lp2314
g57
atp2315
Rp2316
sS'3675000'
p2317
g2
((lp2318
tp2319
Rp2320
sg416
g2
((lp2321
g402
ag33
atp2322
Rp2323
sS'472000'
p2324
g2
((lp2325
g5
ag24
atp2326
Rp2327
sg834
g2
((lp2328
g4
ag408
ag56
ag96
atp2329
Rp2330
sg829
g2
((lp2331
g4
atp2332
Rp2333
sg665
g2
((lp2334
g126
ag419
ag95
ag152
ag181
ag111
ag96
ag56
ag129
atp2335
Rp2336
sS'83250'
p2337
g2
((lp2338
tp2339
Rp2340
sS'7830250'
p2341
g2
((lp2342
g5
atp2343
Rp2344
sS'9394500'
p2345
g2
((lp2346
g95
atp2347
Rp2348
sg308
g2
((lp2349
g101
ag111
ag57
atp2350
Rp2351
sS'8314250'
p2352
g2
((lp2353
g56
ag95
atp2354
Rp2355
sS'2676250'
p2356
g2
((lp2357
S'7886000'
p2358
atp2359
Rp2360
sg669
g2
((lp2361
g594
ag126
ag127
ag162
ag95
ag2056
ag56
ag96
atp2362
Rp2363
sg272
g2
((lp2364
g56
ag57
atp2365
Rp2366
sg951
g2
((lp2367
g77
ag508
ag30
ag56
ag71
atp2368
Rp2369
sg30
g2
((lp2370
g531
ag126
ag886
ag405
ag28
ag163
ag1021
ag96
ag408
ag94
ag6
ag625
ag1854
ag2180
ag418
ag594
ag102
ag414
ag139
ag121
ag951
ag369
ag5
ag175
ag95
ag356
ag181
ag128
ag120
ag1297
ag379
atp2371
Rp2372
sS'1114000'
p2373
g2
((lp2374
tp2375
Rp2376
sS'7494250'
p2377
g2
((lp2378
tp2379
Rp2380
sS'19500'
p2381
g2
((lp2382
g56
ag95
ag111
atp2383
Rp2384
sg1148
g2
((lp2385
g369
ag56
ag120
ag95
ag152
atp2386
Rp2387
sS'8248750'
p2388
g2
((lp2389
tp2390
Rp2391
sg312
g2
((lp2392
g126
ag127
ag405
ag1586
ag111
ag414
ag163
ag96
ag408
ag94
ag287
ag51
ag77
ag129
ag101
ag324
ag1165
ag1203
ag139
ag121
ag2090
ag5
ag95
ag57
ag261
ag4
ag120
ag450
ag181
atp2393
Rp2394
sg1586
g2
((lp2395
g312
ag1173
ag1149
ag214
ag46
ag517
atp2396
Rp2397
sg277
g2
((lp2398
g57
atp2399
Rp2400
sS'10119250'
p2401
g2
((lp2402
g95
atp2403
Rp2404
sg1447
g2
((lp2405
g134
atp2406
Rp2407
sg338
g2
((lp2408
g56
ag57
atp2409
Rp2410
sS'1953250'
p2411
g2
((lp2412
g95
atp2413
Rp2414
sg827
g2
((lp2415
g4
atp2416
Rp2417
sg408
g2
((lp2418
g312
ag402
ag296
ag305
ag841
ag514
ag1028
ag589
ag1150
ag795
ag834
ag30
ag1371
ag651
ag632
atp2419
Rp2420
sg1285
g2
((lp2421
g236
ag1762
ag659
ag235
ag1024
ag1028
ag1588
atp2422
Rp2423
sS'6301250'
p2424
g2
((lp2425
g594
ag152
atp2426
Rp2427
sg2232
g2
((lp2428
g1224
atp2429
Rp2430
sS'3288750'
p2431
g2
((lp2432
g508
atp2433
Rp2434
sg313
g2
((lp2435
g5
ag57
ag111
atp2436
Rp2437
sS'10257500'
p2438
g2
((lp2439
tp2440
Rp2441
sS'1724000'
p2442
g2
((lp2443
tp2444
Rp2445
sg670
g2
((lp2446
g126
ag5
ag152
ag101
ag111
ag96
atp2447
Rp2448
sg1662
g2
((lp2449
g418
atp2450
Rp2451
sg656
g2
((lp2452
g126
ag5
ag120
ag95
ag129
ag56
ag96
atp2453
Rp2454
sg266
g2
((lp2455
g57
ag139
ag161
ag405
ag5
ag973
ag324
ag56
atp2456
Rp2457
sg355
g2
((lp2458
g579
ag822
ag512
ag351
ag320
ag659
ag46
ag2254
ag2271
ag508
ag43
ag1722
ag935
atp2459
Rp2460
sS'6258500'
p2461
g2
((lp2462
tp2463
Rp2464
sS'6904000'
p2465
g2
((lp2466
tp2467
Rp2468
sg2271
g2
((lp2469
g95
ag129
ag355
ag94
atp2470
Rp2471
sg1560
g2
((lp2472
g56
ag6
atp2473
Rp2474
sS'2132250'
p2475
g2
((lp2476
tp2477
Rp2478
sg295
g2
((lp2479
g6
ag57
ag129
atp2480
Rp2481
sS'9720000'
p2482
g2
((lp2483
tp2484
Rp2485
sg2179
g2
((lp2486
g77
ag129
atp2487
Rp2488
sg297
g2
((lp2489
g57
ag296
ag305
ag218
ag339
ag214
ag56
atp2490
Rp2491
sg298
g2
((lp2492
g102
ag57
ag94
ag261
ag129
ag96
atp2493
Rp2494
sS'4620000'
p2495
g2
((lp2496
g1448
atp2497
Rp2498
sg660
g2
((lp2499
g5
ag95
ag129
ag126
atp2500
Rp2501
sS'887750'
p2502
g2
((lp2503
g95
atp2504
Rp2505
sS'10619000'
p2506
g2
((lp2507
tp2508
Rp2509
sS'5256500'
p2510
g2
((lp2511
tp2512
Rp2513
sg303
g2
((lp2514
g101
ag5
ag57
ag152
ag526
atp2515
Rp2516
sg32
g2
((lp2517
g409
aS'12204750'
p2518
ag6
ag28
ag95
ag152
ag111
atp2519
Rp2520
sg666
g2
((lp2521
g95
ag126
atp2522
Rp2523
sg872
g2
((lp2524
g128
ag56
ag152
atp2525
Rp2526
sg304
g2
((lp2527
g95
ag94
ag57
ag56
ag96
atp2528
Rp2529
sg837
g2
((lp2530
g4
ag181
ag95
atp2531
Rp2532
sg2273
g2
((lp2533
g129
atp2534
Rp2535
sg1436
g2
((lp2536
g121
ag467
ag5
ag95
ag152
ag101
ag96
ag56
ag129
atp2537
Rp2538
sg2267
g2
((lp2539
g95
ag129
atp2540
Rp2541
sg419
g2
((lp2542
g448
ag402
ag296
ag510
ag33
ag655
ag1971
ag659
ag1173
ag339
ag214
ag45
ag446
ag264
ag665
atp2543
Rp2544
sg1564
g2
((lp2545
g56
ag6
atp2546
Rp2547
sg1028
g2
((lp2548
g408
ag1285
ag121
ag599
ag6
ag410
ag5
ag102
ag1854
ag356
ag101
ag111
ag608
ag129
atp2549
Rp2550
sS'11121500'
p2551
g2
((lp2552
tp2553
Rp2554
sg2177
g2
((lp2555
g77
ag95
ag129
atp2556
Rp2557
sg270
g2
((lp2558
g77
ag4
ag57
atp2559
Rp2560
sg1813
g2
((lp2561
g94
ag725
ag95
ag152
ag96
atp2562
Rp2563
sg1559
g2
((lp2564
g5
ag6
ag129
ag152
atp2565
Rp2566
sg649
g2
((lp2567
g126
ag724
ag128
ag5
ag95
ag56
ag96
atp2568
Rp2569
sg821
g2
((lp2570
g4
atp2571
Rp2572
sg1254
g2
((lp2573
g95
ag324
ag6
ag1252
atp2574
Rp2575
sg314
g2
((lp2576
g101
ag5
ag57
atp2577
Rp2578
sS'1338750'
p2579
g2
((lp2580
tp2581
Rp2582
sg1774
g2
((lp2583
g1193
ag94
ag120
ag95
ag129
ag420
ag56
ag96
atp2584
Rp2585
sg102
g2
((lp2586
g99
ag210
ag662
ag661
ag44
ag515
ag1171
ag298
ag508
ag513
ag235
ag332
ag330
ag1028
ag291
ag15
ag482
ag486
ag795
ag30
ag274
atp2587
Rp2588
sS'9802000'
p2589
g2
((lp2590
g56
atp2591
Rp2592
sg316
g2
((lp2593
g414
ag724
ag134
ag95
ag129
ag57
ag56
ag96
atp2594
Rp2595
sg2178
g2
((lp2596
g77
ag5
ag56
ag152
atp2597
Rp2598
sS'7785250'
p2599
g2
((lp2600
tp2601
Rp2602
sS'10052000'
p2603
g2
((lp2604
g5
atp2605
Rp2606
sg876
g2
((lp2607
g128
atp2608
Rp2609
sS'12142750'
p2610
g2
((lp2611
g410
ag111
ag95
atp2612
Rp2613
sg1981
g2
((lp2614
g1979
atp2615
Rp2616
sg246
g2
((lp2617
g57
ag134
ag95
ag324
ag56
ag96
atp2618
Rp2619
sg726
g2
((lp2620
g514
atp2621
Rp2622
sS'8346250'
p2623
g2
((lp2624
tp2625
Rp2626
sS'10774750'
p2627
g2
((lp2628
g152
atp2629
Rp2630
sg657
g2
((lp2631
g77
ag95
ag129
ag126
ag94
atp2632
Rp2633
sg324
g2
((lp2634
g838
ag312
ag402
ag296
ag266
ag1254
ag246
ag331
ag44
ag659
ag514
ag247
ag330
ag333
ag290
ag559
ag271
ag1150
ag57
ag224
ag1810
atp2635
Rp2636
sg1151
g2
((lp2637
g369
ag6
atp2638
Rp2639
sS'7269250'
p2640
g2
((lp2641
g152
atp2642
Rp2643
sg2274
g2
((lp2644
g129
atp2645
Rp2646
sS'9015000'
p2647
g2
((lp2648
tp2649
Rp2650
sS'6900500'
p2651
g2
((lp2652
tp2653
Rp2654
sg1023
g2
((lp2655
g405
ag625
ag356
ag5
atp2656
Rp2657
sg1449
g2
((lp2658
g134
ag6
ag56
atp2659
Rp2660
sg329
g2
((lp2661
g101
ag526
ag120
ag57
atp2662
Rp2663
sS'11631250'
p2664
g2
((lp2665
tp2666
Rp2667
sS'5110750'
p2668
g2
((lp2669
g95
atp2670
Rp2671
sS'8385000'
p2672
g2
((lp2673
g111
atp2674
Rp2675
sg332
g2
((lp2676
g6
ag102
ag57
atp2677
Rp2678
sS'746000'
p2679
g2
((lp2680
tp2681
Rp2682
sg1174
g2
((lp2683
g625
ag95
atp2684
Rp2685
sg95
g2
((lp2686
S'7003500'
p2687
ag212
ag142
ag213
ag1114
ag406
ag446
ag225
ag2177
ag2271
aS'8628250'
p2688
ag92
ag2011
ag661
ag1135
ag118
ag124
ag218
ag659
ag233
ag830
ag1110
ag508
ag1568
ag155
ag159
ag1207
ag33
aS'7588000'
p2689
ag1219
ag260
ag184
ag411
ag234
ag325
ag347
ag1276
ag1172
ag235
ag247
ag2265
ag1812
ag1245
ag372
ag239
aS'5012750'
p2690
ag1304
ag1448
ag2266
ag242
ag402
ag822
ag428
ag1332
ag1351
ag1371
ag383
ag511
ag1022
ag655
ag253
ag1567
ag831
ag1412
ag1173
ag236
ag512
ag257
ag540
ag572
ag264
ag1244
ag665
ag518
ag246
ag583
ag2345
ag2352
ag1509
ag669
ag1174
ag795
ag451
ag1064
ag841
ag833
ag1813
ag509
ag2381
ag1148
ag46
ag1592
ag2401
ag279
ag280
ag271
ag163
ag2411
ag723
ag702
ag407
ag1809
ag284
ag285
ag514
ag412
ag516
ag1814
ag656
ag292
ag515
ag752
ag874
ag44
ag296
ag1810
aS'6780500'
p2691
ag1971
ag2502
ag301
ag778
aS'10609250'
p2692
ag662
ag43
ag32
ag666
ag1562
ag304
ag2272
ag837
ag305
ag2264
ag1436
ag2267
aS'6713250'
p2693
ag310
ag840
ag255
ag312
ag649
ag1254
ag1774
ag1019
ag315
ag1795
ag1482
ag316
ag648
ag1823
ag931
ag935
ag2610
ag510
ag317
ag319
ag657
ag1816
ag42
ag1213
ag328
ag290
ag658
ag1817
ag331
ag2668
ag1149
ag333
ag2275
ag660
ag664
ag667
ag30
ag1930
ag198
aS'6003750'
p2694
ag1820
ag120
ag1091
ag250
ag1799
ag1098
ag221
atp2695
Rp2696
sg833
g2
((lp2697
g4
ag973
ag95
atp2698
Rp2699
sS'4716750'
p2700
g2
((lp2701
tp2702
Rp2703
sg664
g2
((lp2704
g77
ag5
ag95
ag4
ag126
atp2705
Rp2706
sS'8280500'
p2707
g2
((lp2708
g5
atp2709
Rp2710
sg335
g2
((lp2711
g57
atp2712
Rp2713
sS'3734250'
p2714
g2
((lp2715
tp2716
Rp2717
sS'9839750'
p2718
g2
((lp2719
g111
atp2720
Rp2721
sg1589
g2
((lp2722
g330
ag1571
ag56
ag46
atp2723
Rp2724
sS'11307500'
p2725
g2
((lp2726
g56
atp2727
Rp2728
sg2277
g2
((lp2729
g129
atp2730
Rp2731
sS'5440750'
p2732
g2
((lp2733
g5
ag1232
atp2734
Rp2735
sg210
g2
((lp2736
g102
ag57
ag1232
ag127
ag134
ag4
ag5
ag1854
ag129
ag950
ag101
ag56
ag96
atp2737
Rp2738
sS'10057000'
p2739
g2
((lp2740
tp2741
Rp2742
sS'8271000'
p2743
g2
((lp2744
tp2745
Rp2746
sg198
g2
((lp2747
g196
ag95
ag129
ag94
atp2748
Rp2749
sg1016
g2
((lp2750
g5
ag356
atp2751
Rp2752
sg2694
g2
((lp2753
g5
ag95
ag56
atp2754
Rp2755
sg1027
g2
((lp2756
g5
ag1951
ag356
ag24
atp2757
Rp2758
sg599
g2
((lp2759
g509
ag650
ag305
ag1028
ag279
ag271
ag508
atp2760
Rp2761
sS'2891500'
p2762
g2
((lp2763
tp2764
Rp2765
sg438
g2
((lp2766
g255
aS'7797000'
p2767
ag436
ag301
aS'5465250'
p2768
aS'9842500'
p2769
atp2770
Rp2771
sg420
g2
((lp2772
g402
ag2026
ag1022
ag33
ag1774
ag1149
ag1947
atp2773
Rp2774
sS'11894500'
p2775
g2
((lp2776
tp2777
Rp2778
sg1212
g2
((lp2779
g508
ag496
ag33
atp2780
Rp2781
sg526
g2
((lp2782
g267
ag511
ag2026
ag329
ag1673
ag305
ag773
ag2769
ag825
ag230
ag245
ag828
ag303
ag632
atp2783
Rp2784
sg654
g2
((lp2785
g531
ag126
ag405
ag5
ag111
ag56
atp2786
Rp2787
sg231
g2
((lp2788
g57
atp2789
Rp2790
sS'2322750'
p2791
g2
((lp2792
g5
atp2793
Rp2794
sg212
g2
((lp2795
g407
ag57
ag161
ag775
ag6
ag95
ag129
ag152
atp2796
Rp2797
sS'1767500'
p2798
g2
((lp2799
tp2800
Rp2801
sg213
g2
((lp2802
g95
ag57
ag129
atp2803
Rp2804
sS'10588000'
p2805
g2
((lp2806
g56
atp2807
Rp2808
sS'8160750'
p2809
g2
((lp2810
g56
atp2811
Rp2812
sg1435
g2
((lp2813
g5
ag467
ag96
atp2814
Rp2815
sg120
g2
((lp2816
g312
ag402
ag1148
ag1774
ag46
ag446
ag118
ag124
ag659
ag514
ag656
ag508
ag44
ag236
ag329
ag1149
ag333
ag95
ag264
ag828
ag305
ag235
ag311
ag30
atp2817
Rp2818
sg214
g2
((lp2819
g4
ag414
ag139
ag467
ag94
ag127
ag51
ag419
ag297
ag161
ag129
ag111
ag101
ag57
ag410
ag56
ag1586
ag96
atp2820
Rp2821
sg509
g2
((lp2822
g414
ag161
ag94
ag599
ag6
ag95
ag129
ag634
ag96
atp2823
Rp2824
sg215
g2
((lp2825
g5
ag57
ag46
atp2826
Rp2827
sg2768
g2
((lp2828
g438
atp2829
Rp2830
sg406
g2
((lp2831
g1568
ag402
ag510
ag305
ag218
ag330
ag235
ag5
ag515
ag95
ag271
ag508
atp2832
Rp2833
sg973
g2
((lp2834
g1568
ag330
ag1817
aS'1758250'
p2835
ag824
ag1011
ag833
ag1566
ag326
ag266
atp2836
Rp2837
sS'6852750'
p2838
g2
((lp2839
tp2840
Rp2841
sS'8861500'
p2842
g2
((lp2843
tp2844
Rp2845
sS'11972750'
p2846
g2
((lp2847
tp2848
Rp2849
sS'10539250'
p2850
g2
((lp2851
g5
ag24
atp2852
Rp2853
sg2688
g2
((lp2854
g95
ag152
atp2855
Rp2856
sg2265
g2
((lp2857
g95
ag129
ag94
atp2858
Rp2859
sS'2428500'
p2860
g2
((lp2861
g111
ag594
ag5
atp2862
Rp2863
sS'11711250'
p2864
g2
((lp2865
tp2866
Rp2867
sg588
g2
((lp2868
g25
ag4
ag5
ag356
ag111
ag56
atp2869
Rp2870
sg415
g2
((lp2871
g402
ag77
ag5
ag152
ag101
ag111
atp2872
Rp2873
sg1807
g2
((lp2874
g5
ag121
ag96
atp2875
Rp2876
sg659
g2
((lp2877
g1285
ag121
ag126
ag5
ag127
ag94
ag419
ag77
ag120
ag309
ag95
ag129
ag355
ag101
ag324
ag608
ag96
atp2878
Rp2879
sg220
g2
((lp2880
g57
atp2881
Rp2882
sS'10477000'
p2883
g2
((lp2884
tp2885
Rp2886
sg2769
g2
((lp2887
g438
ag526
atp2888
Rp2889
sS'11503250'
p2890
g2
((lp2891
tp2892
Rp2893
sg508
g2
((lp2894
g77
ag775
ag405
ag406
ag111
ag96
ag407
ag121
ag599
ag2431
ag6
ag412
ag152
ag355
ag56
ag1243
ag594
ag102
ag414
ag139
ag467
ag1297
ag5
ag555
ag448
ag4
ag120
ag161
ag951
ag181
ag95
ag1212
ag2125
atp2895
Rp2896
sS'11683250'
p2897
g2
((lp2898
g5
atp2899
Rp2900
sS'6067750'
p2901
g2
((lp2902
g1567
atp2903
Rp2904
sg2263
g2
((lp2905
g129
atp2906
Rp2907
sg1568
g2
((lp2908
g973
ag6
ag95
ag152
ag406
ag96
atp2909
Rp2910
sg227
g2
((lp2911
g57
ag129
atp2912
Rp2913
sg2180
g2
((lp2914
g77
ag594
ag30
ag152
atp2915
Rp2916
sS'8848250'
p2917
g2
((lp2918
g5
atp2919
Rp2920
sg1816
g2
((lp2921
g95
ag129
ag96
atp2922
Rp2923
sg228
g2
((lp2924
g111
ag57
atp2925
Rp2926
sg1574
g2
((lp2927
g6
ag129
atp2928
Rp2929
sg5
g2
((lp2930
g647
ag1
ag404
ag22
aS'12004000'
p2931
ag205
ag215
ag406
ag1021
ag2850
ag99
ag109
ag2162
ag583
ag2026
ag588
ag219
ag1020
ag830
ag146
ag508
ag2897
ag224
ag653
ag1203
ag415
ag166
ag171
ag1581
ag179
ag184
ag188
ag1235
ag2324
aS'12337750'
p2932
ag351
ag235
ag367
ag254
ag240
ag390
ag394
ag1546
aS'4963500'
p2933
ag242
ag402
ag2214
ag428
ag353
ag243
aS'8072250'
p2934
ag825
ag1351
aS'7976750'
p2935
ag244
ag650
ag1371
ag383
ag1382
ag236
ag1022
ag1400
ag651
ag2254
ag482
ag486
ag659
ag503
ag1423
ag139
ag958
ag832
ag512
ag529
ag258
ag1024
ag2307
ag572
aS'12331000'
p2936
ag661
ag668
ag564
ag266
ag267
ag268
ag2341
ag912
ag2860
ag654
ag181
ag672
ag30
ag632
ag275
ag638
ag126
ag679
ag1807
ag1017
ag1018
ag46
ag330
ag1603
ag670
ag282
ag1831
ag69
ag24
ag514
ag289
aS'6412250'
p2937
ag656
ag1669
ag950
ag293
aS'11111500'
p2938
ag756
ag760
ag660
ag405
ag300
ag778
ag1019
ag663
ag662
ag302
ag303
ag137
ag1730
ag229
ag1150
aS'10696000'
p2939
ag305
ag306
ag1436
ag1744
ag307
ag2227
ag1028
ag855
ag867
ag1559
ag312
ag649
ag882
ag313
ag1814
ag314
ag901
ag2178
ag826
ag2603
ag2732
ag317
ag221
ag70
ag71
ag2791
ag413
ag326
ag2917
ag1871
ag980
ag1023
ag658
ag356
ag1663
ag664
ag2707
ag66
ag1025
ag67
ag1435
ag1027
ag210
ag2690
ag1016
ag2694
ag274
ag250
ag340
ag1026
ag72
atp2940
Rp2941
sS'8017000'
p2942
g2
((lp2943
tp2944
Rp2945
sS'1047000'
p2946
g2
((lp2947
tp2948
Rp2949
sg653
g2
((lp2950
g126
ag94
ag24
ag5
ag129
ag96
atp2951
Rp2952
sg219
g2
((lp2953
g531
ag414
ag139
ag4
ag6
ag405
ag5
ag129
ag57
ag418
ag56
ag96
atp2954
Rp2955
sg2518
g2
((lp2956
g32
atp2957
Rp2958
sg1805
g2
((lp2959
g96
atp2960
Rp2961
sS'1620500'
p2962
g2
((lp2963
tp2964
Rp2965
sS'11032250'
p2966
g2
((lp2967
tp2968
Rp2969
sS'4533750'
p2970
g2
((lp2971
tp2972
Rp2973
sg1812
g2
((lp2974
g95
ag96
atp2975
Rp2976
sg2938
g2
((lp2977
g5
ag111
atp2978
Rp2979
sg2767
g2
((lp2980
g438
ag56
atp2981
Rp2982
sg239
g2
((lp2983
g95
ag57
atp2984
Rp2985
sg2690
g2
((lp2986
g5
ag95
ag152
ag56
atp2987
Rp2988
sS'9035750'
p2989
g2
((lp2990
tp2991
Rp2992
sS'10927500'
p2993
g2
((lp2994
tp2995
Rp2996
sg873
g2
((lp2997
g128
atp2998
Rp2999
sg2266
g2
((lp3000
g95
ag129
atp3001
Rp3002
sS'5742000'
p3003
g2
((lp3004
tp3005
Rp3006
sg1804
g2
((lp3007
g96
atp3008
Rp3009
sg2214
g2
((lp3010
g5
ag383
atp3011
Rp3012
sg2175
g2
((lp3013
g77
ag56
atp3014
Rp3015
sg405
g2
((lp3016
g312
ag402
ag243
ag46
ag825
ag650
ag1382
ag661
ag317
ag250
ag654
ag219
ag71
ag514
ag330
ag508
ag326
ag980
ag1023
ag512
ag258
ag5
ag340
ag662
ag302
ag266
ag305
ag235
ag240
ag30
ag841
ag274
atp3017
Rp3018
sg2934
g2
((lp3019
g5
ag56
atp3020
Rp3021
sg2176
g2
((lp3022
g77
ag56
atp3023
Rp3024
sg327
g2
((lp3025
g6
ag134
ag57
ag56
atp3026
Rp3027
sS'6848750'
p3028
g2
((lp3029
tp3030
Rp3031
sg245
g2
((lp3032
g526
ag57
ag129
ag126
ag152
atp3033
Rp3034
sg413
g2
((lp3035
g111
ag5
ag402
ag56
atp3036
Rp3037
sg211
g2
((lp3038
g250
ag57
atp3039
Rp3040
sS'3075000'
p3041
g2
((lp3042
tp3043
Rp3044
sg513
g2
((lp3045
g102
ag414
ag77
ag1854
ag152
ag111
ag101
ag450
ag129
atp3046
Rp3047
sS'2476250'
p3048
g2
((lp3049
g101
atp3050
Rp3051
sg253
g2
((lp3052
g77
ag95
ag57
atp3053
Rp3054
sg1567
g2
((lp3055
g95
ag6
ag129
ag2901
ag152
atp3056
Rp3057
sg831
g2
((lp3058
g4
ag94
ag95
ag129
ag96
atp3059
Rp3060
sg725
g2
((lp3061
g1813
ag31
ag514
atp3062
Rp3063
sg1448
g2
((lp3064
g2495
ag134
ag95
ag152
ag111
ag1192
ag56
ag96
atp3065
Rp3066
sg517
g2
((lp3067
g414
ag1586
ag1193
atp3068
Rp3069
sg1578
g2
((lp3070
g1017
atp3071
Rp3072
sg1808
g2
((lp3073
g96
atp3074
Rp3075
sg236
g2
((lp3076
g1285
ag127
ag181
ag5
ag120
ag95
ag152
ag101
ag57
atp3077
Rp3078
sg512
g2
((lp3079
g414
ag161
ag126
ag77
ag134
ag405
ag5
ag95
ag129
ag355
ag56
atp3080
Rp3081
sg1173
g2
((lp3082
g139
ag94
ag1586
ag419
ag625
ag95
ag111
ag56
ag96
atp3083
Rp3084
sg2936
g2
((lp3085
g5
ag24
atp3086
Rp3087
sg1809
g2
((lp3088
g94
ag77
ag95
ag129
ag111
ag1854
ag56
ag96
atp3089
Rp3090
sg671
g2
((lp3091
g101
ag56
ag168
ag126
atp3092
Rp3093
sg451
g2
((lp3094
g95
ag514
ag6
ag129
ag446
atp3095
Rp3096
sg264
g2
((lp3097
g57
ag126
ag94
ag77
ag419
ag120
ag95
ag129
ag181
ag96
atp3098
Rp3099
sg518
g2
((lp3100
g95
ag414
ag129
atp3101
Rp3102
sg267
g2
((lp3103
g57
ag770
ag134
ag6
ag5
ag129
ag56
ag379
ag111
ag526
atp3104
Rp3105
sS'6299000'
p3106
g2
((lp3107
tp3108
Rp3109
sS'2823250'
p3110
g2
((lp3111
tp3112
Rp3113
sg269
g2
((lp3114
g57
atp3115
Rp3116
sg2931
g2
((lp3117
g5
atp3118
Rp3119
sS'11687000'
p3120
g2
((lp3121
tp3122
Rp3123
sg2358
g2
((lp3124
g2356
atp3125
Rp3126
sS'10578000'
p3127
g2
((lp3128
g56
atp3129
Rp3130
sS'11300000'
p3131
g2
((lp3132
g56
atp3133
Rp3134
sg181
g2
((lp3135
g508
ag312
ag661
ag837
ag236
ag305
ag828
ag5
ag179
ag264
ag30
ag411
ag665
atp3136
Rp3137
sS'2076000'
p3138
g2
((lp3139
tp3140
Rp3141
sg296
g2
((lp3142
g1561
ag408
ag57
ag161
ag94
ag77
ag134
ag6
ag419
ag297
ag95
ag129
ag324
ag56
ag96
atp3143
Rp3144
sg274
g2
((lp3145
g531
ag57
ag139
ag4
ag405
ag5
ag102
ag356
ag101
ag111
ag418
ag152
atp3146
Rp3147
sS'5999000'
p3148
g2
((lp3149
tp3150
Rp3151
sg2268
g2
((lp3152
g129
atp3153
Rp3154
sg1054
g2
((lp3155
g66
atp3156
Rp3157
sg439
g2
((lp3158
g436
ag244
atp3159
Rp3160
sS'3787750'
p3161
g2
((lp3162
tp3163
Rp3164
sS'11772000'
p3165
g2
((lp3166
tp3167
Rp3168
sS'7657250'
p3169
g2
((lp3170
tp3171
Rp3172
sg2933
g2
((lp3173
g5
ag111
atp3174
Rp3175
sS'965500'
p3176
g2
((lp3177
tp3178
Rp3179
sg300
g2
((lp3180
g5
ag57
atp3181
Rp3182
sS'3954500'
p3183
g2
((lp3184
tp3185
Rp3186
sg2269
g2
((lp3187
g129
ag94
atp3188
Rp3189
sg2270
g2
((lp3190
g129
atp3191
Rp3192
sS'11646500'
p3193
g2
((lp3194
tp3195
Rp3196
sg282
g2
((lp3197
g5
ag57
ag129
atp3198
Rp3199
sg877
g2
((lp3200
g128
atp3201
Rp3202
sg407
g2
((lp3203
g402
ag212
ag305
ag330
ag95
ag129
ag446
ag508
ag152
atp3204
Rp3205
sS'252500'
p3206
g2
((lp3207
tp3208
Rp3209
sg875
g2
((lp3210
g128
ag129
atp3211
Rp3212
sg69
g2
((lp3213
g531
ag5
ag356
ag111
ag1055
ag64
ag418
atp3214
Rp3215
sg410
g2
((lp3216
g2610
ag514
ag214
ag1028
ag111
ag101
ag402
atp3217
Rp3218
sg2937
g2
((lp3219
g101
ag5
ag111
atp3220
Rp3221
sg2835
g2
((lp3222
g973
atp3223
Rp3224
sg24
g2
((lp3225
g242
ag882
ag1017
ag1020
ag1351
ag216
ag650
ag2850
ag383
ag583
ag71
ag1871
ag980
ag22
ag330
ag258
ag2936
ag5
ag778
ag2324
ag1027
ag46
ag653
ag137
ag66
ag1730
ag67
ag668
ag351
ag623
ag632
atp3226
Rp3227
sS'3312500'
p3228
g2
((lp3229
g770
ag56
atp3230
Rp3231
sg2125
g2
((lp3232
g508
ag56
ag305
atp3233
Rp3234
sg291
g2
((lp3235
g102
ag57
atp3236
Rp3237
sS'6015000'
p3238
g2
((lp3239
tp3240
Rp3241
sS'8216750'
p3242
g2
((lp3243
g594
atp3244
Rp3245
sg290
g2
((lp3246
g95
ag324
ag57
ag56
atp3247
Rp3248
sS'5226250'
p3249
g2
((lp3250
tp3251
Rp3252
sg152
g2
((lp3253
g1813
ag661
ag496
ag402
ag274
ag276
ag1148
ag886
ag897
ag1559
ag905
ag825
ag446
ag670
ag891
ag2178
ag1810
ag407
ag652
ag212
ag218
ag318
ag245
ag513
ag287
ag2424
ag514
ag1155
ag1554
ag1567
ag32
ag838
ag1762
ag383
ag2640
ag2180
ag872
ag1568
ag155
ag2627
ag236
ag415
ag166
ag773
ag1971
ag540
ag1571
ag230
ag1663
ag828
ag43
ag303
ag665
ag150
ag1482
ag508
ag2687
ag1268
ag1436
ag2688
ag363
ag1091
ag2690
ag623
ag1806
ag1448
ag632
ag867
atp3254
Rp3255
sg874
g2
((lp3256
g128
ag95
atp3257
Rp3258
sg1773
g2
((lp3259
g1224
ag1193
atp3260
Rp3261
sg44
g2
((lp3262
g102
ag126
ag467
ag94
ag77
ag134
ag635
ag161
ag40
ag4
ag120
ag95
ag129
ag417
ag324
ag96
ag56
ag421
atp3263
Rp3264
sS'6848000'
p3265
g2
((lp3266
g56
atp3267
Rp3268
sg161
g2
((lp3269
g448
ag509
ag402
ag159
ag212
ag822
ag512
ag257
ag648
ag214
ag619
ag44
ag508
ag233
ag266
ag296
atp3270
Rp3271
sg770
g2
((lp3272
g267
ag2293
ag802
ag306
ag768
ag46
ag322
ag1450
ag2046
ag216
ag281
ag878
ag3228
ag383
atp3273
Rp3274
sg950
g2
((lp3275
g210
ag980
ag661
ag2227
ag250
ag71
ag243
ag1020
ag5
ag825
ag240
atp3276
Rp3277
sS'791500'
p3278
g2
((lp3279
g56
atp3280
Rp3281
sg2691
g2
((lp3282
g95
atp3283
Rp3284
sg2932
g2
((lp3285
g5
atp3286
Rp3287
sg1562
g2
((lp3288
g77
ag95
ag6
atp3289
Rp3290
sS'9199500'
p3291
g2
((lp3292
tp3293
Rp3294
sg268
g2
((lp3295
g5
ag57
ag71
atp3296
Rp3297
sS'39750'
p3298
g2
((lp3299
tp3300
Rp3301
sg662
g2
((lp3302
g102
ag126
ag6
ag405
ag5
ag95
ag421
atp3303
Rp3304
sS'10654750'
p3305
g2
((lp3306
tp3307
Rp3308
sg1806
g2
((lp3309
g152
ag96
atp3310
Rp3311
sg229
g2
((lp3312
g5
ag57
ag56
atp3313
Rp3314
sg2272
g2
((lp3315
g95
ag129
atp3316
Rp3317
sg2264
g2
((lp3318
g95
ag129
atp3319
Rp3320
sg56
g2
((lp3321
g210
ag2687
ag114
ag2805
ag2809
ag1446
ag1118
ag214
ag54
ag216
ag225
ag394
ag88
ag92
ag661
ag1135
ag218
ag132
ag219
ag233
ag508
ag224
ag2063
ag381
ag2589
ag1207
ag33
ag166
ag171
ag1581
ag1219
ag229
ag230
ag232
ag411
ag347
ag2767
ag305
ag235
ag2135
ag671
ag2690
ag402
ag424
ag822
ag1324
ag428
ag1328
ag1332
ag436
ag2934
ag1351
ag244
ag2176
ag650
ag1371
ag3127
ag383
ag1382
ag250
ag2238
ag1400
ag252
ag1448
ag1173
ag511
ag832
ag512
ag259
ag31
ag310
ag555
ag834
ag568
ag1563
ag665
ag267
ag912
ag1489
ag1493
ag2352
ag1509
ag669
ag333
ag654
ag615
ag951
ag1450
ag672
ag2725
ag275
ag588
ag2381
ag1148
ag679
ag1018
ag46
ag281
ag891
ag702
ag283
ag1809
ag284
ag1831
ag3228
ag2175
ag2125
ag656
ag266
ag1653
ag290
ag418
ag271
ag760
ag3265
ag2276
ag297
ag1677
ag327
ag3278
ag1971
ag1571
ag243
ag668
ag302
ag872
ag304
ag1451
ag1740
ag306
ag1436
ag1744
ag307
ag1564
ag1055
ag311
ag859
ag863
ag840
ag649
ag882
ag1560
ag823
ag1774
ag44
ag316
ag2178
ag296
ag1823
ag990
ag510
ag317
ag2209
ag246
ag247
ag70
ag71
ag322
ag42
ag413
aS'4256000'
p3322
ag272
ag1243
ag980
ag328
ag1449
ag3131
ag134
ag1007
ag1663
ag828
ag288
ag1025
ag1589
ag836
ag2694
ag1820
ag338
ag339
ag1172
aS'4118250'
p3323
ag1091
ag340
ag1155
ag72
atp3324
Rp3325
sS'3590000'
p3326
g2
((lp3327
tp3328
Rp3329
sg2693
g2
((lp3330
g95
atp3331
Rp3332
sS'5292000'
p3333
g2
((lp3334
tp3335
Rp3336
sS'6872750'
p3337
g2
((lp3338
tp3339
Rp3340
sg1566
g2
((lp3341
g973
ag94
ag6
ag129
ag96
atp3342
Rp3343
sg310
g2
((lp3344
g57
ag467
ag4
ag128
ag6
ag95
ag56
atp3345
Rp3346
sg311
g2
((lp3347
g111
ag594
ag120
ag57
ag56
atp3348
Rp3349
sS'12016750'
p3350
g2
((lp3351
tp3352
Rp3353
sg2692
g2
((lp3354
g95
atp3355
Rp3356
sS'6205000'
p3357
g2
((lp3358
tp3359
Rp3360
sg2935
g2
((lp3361
g5
atp3362
Rp3363
sS'8757750'
p3364
g2
((lp3365
tp3366
Rp3367
sg594
g2
((lp3368
g508
ag30
ag2424
ag2860
ag592
ag823
ag669
ag3242
ag2180
ag311
ag828
atp3369
Rp3370
sg1814
g2
((lp3371
g5
ag95
ag96
atp3372
Rp3373
sg824
g2
((lp3374
g4
ag973
atp3375
Rp3376
sS'2364500'
p3377
g2
((lp3378
tp3379
Rp3380
sg111
g2
((lp3381
g214
ag216
ag1021
ag651
ag478
ag109
ag2162
ag583
ag588
ag32
ag830
ag508
ag224
ag415
ag228
ag230
ag1235
ag235
ag372
ag240
ag2933
ag402
ag428
ag436
ag825
ag1351
ag446
ag413
ag462
ag248
ag1022
ag513
ag482
ag254
ag258
ag1173
ag31
ag661
ag665
ag267
ag2860
ag308
ag2718
ag336
ag841
ag274
ag2381
ag1017
ag514
ag1448
ag1809
ag69
ag410
ag287
ag670
ag2937
ag1669
ag2938
ag1165
ag243
ag663
ag1722
ag137
ag2939
ag1028
ag311
ag867
ag756
ag312
ag313
ag2610
ag317
ag654
ag70
ag71
aS'969750'
p3382
ag323
ag326
ag980
ag2672
ag1663
ag828
ag66
ag1025
ag67
ag273
ag450
ag632
ag250
ag340
ag72
atp3383
Rp3384
sS'448250'
p3385
g2
((lp3386
tp3387
Rp3388
sg648
g2
((lp3389
g95
ag161
ag126
atp3390
Rp3391
sg409
g2
((lp3392
g402
ag32
atp3393
Rp3394
sg510
g2
((lp3395
g414
ag94
ag128
ag419
ag95
ag129
ag406
ag1213
ag56
ag96
atp3396
Rp3397
sg94
g2
((lp3398
g1813
ag312
ag509
ag402
ag1149
ag1774
ag46
ag214
ag2269
ag1371
ag411
ag92
ag283
ag652
ag510
ag218
ag653
ag659
ag514
ag129
ag831
ag330
ag323
ag224
ag657
ag980
ag44
ag296
ag264
ag298
ag260
ag1173
ag333
ag1573
ag2271
ag43
ag1722
ag288
ag304
ag347
ag351
ag1809
ag247
ag339
ag2265
ag1566
ag30
ag241
ag198
ag632
atp3399
Rp3400
sg1982
g2
((lp3401
g1979
atp3402
Rp3403
sg70
g2
((lp3404
g531
ag134
ag5
ag356
ag111
ag101
ag64
ag418
ag56
atp3405
Rp3406
sg3382
g2
((lp3407
g111
atp3408
Rp3409
sS'8949750'
p3410
g2
((lp3411
tp3412
Rp3413
sg2181
g2
((lp3414
g77
atp3415
Rp3416
sg2689
g2
((lp3417
g95
atp3418
Rp3419
sg101
g2
((lp3420
g647
ag210
ag312
ag402
ag127
ag314
aS'371250'
p3421
ag659
ag214
ag1351
ag446
ag1021
ag99
ag661
ag317
ag513
ag70
ag1020
ag670
ag3048
ag2937
ag1669
ag830
ag323
ag224
ag980
ag1203
ag236
ag415
ag329
ag258
ag333
ag1663
ag303
ag67
ag2939
ag305
ag308
ag1436
ag1744
ag410
ag1028
ag671
ag340
ag72
ag274
atp3422
Rp3423
sg1563
g2
((lp3424
g56
ag6
atp3425
Rp3426
sg3322
g2
((lp3427
g56
atp3428
Rp3429
sS'5962750'
p3430
g2
((lp3431
tp3432
Rp3433
sg3421
g2
((lp3434
g101
atp3435
Rp3436
sg299
g2
((lp3437
g57
atp3438
Rp3439
sg2939
g2
((lp3440
g101
ag5
ag111
atp3441
Rp3442
sS'7345250'
p3443
g2
((lp3444
tp3445
Rp3446
sg330
g2
((lp3447
g407
ag1589
ag102
ag57
ag139
ag25
ag4
ag424
ag1193
ag405
ag5
ag474
ag1011
ag129
ag406
ag973
ag324
ag24
ag94
ag96
atp3448
Rp3449
sS'2187500'
p3450
g2
((lp3451
tp3452
Rp3453
sg331
g2
((lp3454
g95
ag324
ag57
ag96
atp3455
Rp3456
sg45
g2
((lp3457
g57
ag126
ag419
ag40
ag129
ag1588
atp3458
Rp3459
sS'3410000'
p3460
g2
((lp3461
tp3462
Rp3463
sg515
g2
((lp3464
g102
ag414
ag162
ag95
ag406
ag96
atp3465
Rp3466
sg2275
g2
((lp3467
g95
ag129
atp3468
Rp3469
sS'6155250'
p3470
g2
((lp3471
tp3472
Rp3473
sg1663
g2
((lp3474
g5
ag152
ag101
ag111
ag418
ag56
atp3475
Rp3476
sg1572
g2
((lp3477
g6
ag96
atp3478
Rp3479
sS'3799500'
p3480
g2
((lp3481
tp3482
Rp3483
sg288
g2
((lp3484
g57
ag94
ag6
ag129
ag56
ag96
atp3485
Rp3486
sg667
g2
((lp3487
g95
ag129
ag126
atp3488
Rp3489
sg2276
g2
((lp3490
g56
ag129
atp3491
Rp3492
sS'9352750'
p3493
g2
((lp3494
tp3495
Rp3496
sS'4886500'
p3497
g2
((lp3498
tp3499
Rp3500
sg2687
g2
((lp3501
g56
ag95
ag152
atp3502
Rp3503
sg1232
g2
((lp3504
g210
ag835
ag2732
atp3505
Rp3506
sg337
g2
((lp3507
g57
atp3508
Rp3509
sg2167
g2
((lp3510
g77
ag531
atp3511
Rp3512
sg1820
g2
((lp3513
g77
ag56
ag95
ag96
atp3514
Rp3515
sg2278
g2
((lp3516
g129
atp3517
Rp3518
sg1769
g2
((lp3519
g561
atp3520
Rp3521
sg1172
g2
((lp3522
g625
ag95
ag129
ag56
atp3523
Rp3524
sg3323
g2
((lp3525
g56
atp3526
Rp3527
sS'7787500'
p3528
g2
((lp3529
tp3530
Rp3531
sg340
g2
((lp3532
g531
ag57
ag139
ag134
ag405
ag5
ag101
ag111
ag56
atp3533
Rp3534
sg1155
g2
((lp3535
g1550
ag724
ag134
ag261
ag152
ag56
atp3536
Rp3537
s.